

Microchip MPLAB XC8 Assembler V2.32 build 20210201212658 
                                                                                               Wed Feb 02 15:39:14 2022

Microchip MPLAB XC8 C Compiler v2.32 (Free license) build 20210201212658 Og1 
     1                           	processor	16F877A
     2                           	pagewidth 120
     3                           	opt	flic
     4                           	psect	strings,global,class=STRING,delta=2,noexec
     5                           	psect	cinit,global,class=CODE,merge=1,delta=2
     6                           	psect	bssBANK0,global,class=BANK0,space=1,delta=1,noexec
     7                           	psect	cstackCOMMON,global,class=COMMON,space=1,delta=1,noexec
     8                           	psect	cstackBANK0,global,class=BANK0,space=1,delta=1,noexec
     9                           	psect	maintext,global,class=CODE,split=1,delta=2
    10                           	psect	text1,local,class=CODE,merge=1,delta=2
    11                           	psect	text2,local,class=CODE,merge=1,delta=2
    12                           	psect	text3,local,class=CODE,merge=1,delta=2
    13                           	psect	text4,local,class=CODE,merge=1,delta=2
    14                           	psect	text5,local,class=CODE,merge=1,delta=2
    15                           	psect	text6,local,class=CODE,merge=1,delta=2
    16                           	psect	text7,local,class=CODE,merge=1,delta=2
    17                           	psect	text8,local,class=CODE,merge=1,delta=2,group=1
    18                           	psect	text9,local,class=CODE,merge=1,delta=2,group=1
    19                           	psect	text10,local,class=CODE,merge=1,delta=2,group=1
    20                           	psect	text11,local,class=CODE,merge=1,delta=2,group=1
    21                           	psect	text12,local,class=CODE,merge=1,delta=2,group=1
    22                           	psect	text13,local,class=CODE,merge=1,delta=2,group=1
    23                           	psect	config,global,abs,ovrld,class=CONFIG,space=4,delta=2,noexec
    24                           	dabs	1,0x7E,2
    25  0000                     
    26                           ; Version 2.20
    27                           ; Generated 12/02/2020 GMT
    28                           ; 
    29                           ; Copyright © 2020, Microchip Technology Inc. and its subsidiaries ("Microchip")
    30                           ; All rights reserved.
    31                           ; 
    32                           ; This software is developed by Microchip Technology Inc. and its subsidiaries ("Microch
      +                          ip").
    33                           ; 
    34                           ; Redistribution and use in source and binary forms, with or without modification, are
    35                           ; permitted provided that the following conditions are met:
    36                           ; 
    37                           ;     1. Redistributions of source code must retain the above copyright notice, this lis
      +                          t of
    38                           ;        conditions and the following disclaimer.
    39                           ; 
    40                           ;     2. Redistributions in binary form must reproduce the above copyright notice, this 
      +                          list
    41                           ;        of conditions and the following disclaimer in the documentation and/or other
    42                           ;        materials provided with the distribution.
    43                           ; 
    44                           ;     3. Microchip's name may not be used to endorse or promote products derived from th
      +                          is
    45                           ;        software without specific prior written permission.
    46                           ; 
    47                           ; THIS SOFTWARE IS PROVIDED BY MICROCHIP "AS IS" AND ANY EXPRESS OR IMPLIED WARRANTIES,
    48                           ; INCLUDING, BUT NOT LIMITED TO, THE IMPLIED WARRANTIES OF MERCHANTABILITY AND FITNESS F
      +                          OR
    49                           ; PURPOSE ARE DISCLAIMED.  IN NO EVENT SHALL MICROCHIP BE LIABLE FOR ANY DIRECT, INDIREC
      +                          T,
    50                           ; INCIDENTAL, SPECIAL, EXEMPLARY, OR CONSEQUENTIAL DAMAGES (INCLUDING BUT NOT LIMITED TO
    51                           ; PROCUREMENT OF SUBSTITUTE GOODS OR SERVICES; LOSS OF USE, DATA OR PROFITS; OR BUSINESS
    52                           ; INTERRUPTION) HOWSOEVER CAUSED AND ON ANY THEORY OF LIABILITY, WHETHER IN CONTRACT, ST
      +                          RICT
    53                           ; LIABILITY, OR TORT (INCLUDING NEGLIGENCE OR OTHERWISE) ARISING IN ANY WAY OUT OF THE U
      +                          SE OF
    54                           ; THIS SOFTWARE, EVEN IF ADVISED OF THE POSSIBILITY OF SUCH DAMAGE.
    55                           ; 
    56                           ; 
    57                           ; Code-generator required, PIC16F877A Definitions
    58                           ; 
    59                           ; SFR Addresses
    60  0000                     	;# 
    61  0001                     	;# 
    62  0002                     	;# 
    63  0003                     	;# 
    64  0004                     	;# 
    65  0005                     	;# 
    66  0006                     	;# 
    67  0007                     	;# 
    68  0008                     	;# 
    69  0009                     	;# 
    70  000A                     	;# 
    71  000B                     	;# 
    72  000C                     	;# 
    73  000D                     	;# 
    74  000E                     	;# 
    75  000E                     	;# 
    76  000F                     	;# 
    77  0010                     	;# 
    78  0011                     	;# 
    79  0012                     	;# 
    80  0013                     	;# 
    81  0014                     	;# 
    82  0015                     	;# 
    83  0015                     	;# 
    84  0016                     	;# 
    85  0017                     	;# 
    86  0018                     	;# 
    87  0019                     	;# 
    88  001A                     	;# 
    89  001B                     	;# 
    90  001B                     	;# 
    91  001C                     	;# 
    92  001D                     	;# 
    93  001E                     	;# 
    94  001F                     	;# 
    95  0081                     	;# 
    96  0085                     	;# 
    97  0086                     	;# 
    98  0087                     	;# 
    99  0088                     	;# 
   100  0089                     	;# 
   101  008C                     	;# 
   102  008D                     	;# 
   103  008E                     	;# 
   104  0091                     	;# 
   105  0092                     	;# 
   106  0093                     	;# 
   107  0094                     	;# 
   108  0098                     	;# 
   109  0099                     	;# 
   110  009C                     	;# 
   111  009D                     	;# 
   112  009E                     	;# 
   113  009F                     	;# 
   114  010C                     	;# 
   115  010D                     	;# 
   116  010E                     	;# 
   117  010F                     	;# 
   118  018C                     	;# 
   119  018D                     	;# 
   120  0000                     	;# 
   121  0001                     	;# 
   122  0002                     	;# 
   123  0003                     	;# 
   124  0004                     	;# 
   125  0005                     	;# 
   126  0006                     	;# 
   127  0007                     	;# 
   128  0008                     	;# 
   129  0009                     	;# 
   130  000A                     	;# 
   131  000B                     	;# 
   132  000C                     	;# 
   133  000D                     	;# 
   134  000E                     	;# 
   135  000E                     	;# 
   136  000F                     	;# 
   137  0010                     	;# 
   138  0011                     	;# 
   139  0012                     	;# 
   140  0013                     	;# 
   141  0014                     	;# 
   142  0015                     	;# 
   143  0015                     	;# 
   144  0016                     	;# 
   145  0017                     	;# 
   146  0018                     	;# 
   147  0019                     	;# 
   148  001A                     	;# 
   149  001B                     	;# 
   150  001B                     	;# 
   151  001C                     	;# 
   152  001D                     	;# 
   153  001E                     	;# 
   154  001F                     	;# 
   155  0081                     	;# 
   156  0085                     	;# 
   157  0086                     	;# 
   158  0087                     	;# 
   159  0088                     	;# 
   160  0089                     	;# 
   161  008C                     	;# 
   162  008D                     	;# 
   163  008E                     	;# 
   164  0091                     	;# 
   165  0092                     	;# 
   166  0093                     	;# 
   167  0094                     	;# 
   168  0098                     	;# 
   169  0099                     	;# 
   170  009C                     	;# 
   171  009D                     	;# 
   172  009E                     	;# 
   173  009F                     	;# 
   174  010C                     	;# 
   175  010D                     	;# 
   176  010E                     	;# 
   177  010F                     	;# 
   178  018C                     	;# 
   179  018D                     	;# 
   180  0000                     	;# 
   181  0001                     	;# 
   182  0002                     	;# 
   183  0003                     	;# 
   184  0004                     	;# 
   185  0005                     	;# 
   186  0006                     	;# 
   187  0007                     	;# 
   188  0008                     	;# 
   189  0009                     	;# 
   190  000A                     	;# 
   191  000B                     	;# 
   192  000C                     	;# 
   193  000D                     	;# 
   194  000E                     	;# 
   195  000E                     	;# 
   196  000F                     	;# 
   197  0010                     	;# 
   198  0011                     	;# 
   199  0012                     	;# 
   200  0013                     	;# 
   201  0014                     	;# 
   202  0015                     	;# 
   203  0015                     	;# 
   204  0016                     	;# 
   205  0017                     	;# 
   206  0018                     	;# 
   207  0019                     	;# 
   208  001A                     	;# 
   209  001B                     	;# 
   210  001B                     	;# 
   211  001C                     	;# 
   212  001D                     	;# 
   213  001E                     	;# 
   214  001F                     	;# 
   215  0081                     	;# 
   216  0085                     	;# 
   217  0086                     	;# 
   218  0087                     	;# 
   219  0088                     	;# 
   220  0089                     	;# 
   221  008C                     	;# 
   222  008D                     	;# 
   223  008E                     	;# 
   224  0091                     	;# 
   225  0092                     	;# 
   226  0093                     	;# 
   227  0094                     	;# 
   228  0098                     	;# 
   229  0099                     	;# 
   230  009C                     	;# 
   231  009D                     	;# 
   232  009E                     	;# 
   233  009F                     	;# 
   234  010C                     	;# 
   235  010D                     	;# 
   236  010E                     	;# 
   237  010F                     	;# 
   238  018C                     	;# 
   239  018D                     	;# 
   240                           
   241                           	psect	strings
   242  0003                     __pstrings:
   243  0003                     stringtab:
   244  0003                     __stringtab:
   245  0003                     stringcode:	
   246                           ;	String table - string pointers are 1 byte each
   247                           
   248  0003                     stringdir:
   249  0003  3000               	movlw	high stringdir
   250  0004  008A               	movwf	10
   251  0005  0804               	movf	4,w
   252  0006  0A84               	incf	4,f
   253  0007  0782               	addwf	2,f
   254  0008                     __stringbase:
   255  0008  3400               	retlw	0
   256  0009                     __end_of__stringtab:
   257  0009                     _oran:
   258  0009  340A               	retlw	10
   259  000A  3428               	retlw	40
   260  000B  34A0               	retlw	160
   261  000C  343B               	retlw	59
   262  000D                     __end_of_oran:
   263  001E                     _ADRESH	set	30
   264  001F                     _ADCON0bits	set	31
   265  0007                     _PORTC	set	7
   266  0006                     _PORTB	set	6
   267  0032                     _RB2	set	50
   268  0030                     _RB0	set	48
   269  0031                     _RB1	set	49
   270  009E                     _ADRESL	set	158
   271  009F                     _ADCON1bits	set	159
   272  0087                     _TRISC	set	135
   273  0086                     _TRISB	set	134
   274  0085                     _TRISA	set	133
   275  000D                     STR_2:
   276  000D  3441               	retlw	65	;'A'
   277  000E  346E               	retlw	110	;'n'
   278  000F  3461               	retlw	97	;'a'
   279  0010  346C               	retlw	108	;'l'
   280  0011  346F               	retlw	111	;'o'
   281  0012  3467               	retlw	103	;'g'
   282  0013  3420               	retlw	32	;' '
   283  0014  343A               	retlw	58	;':'
   284  0015  3420               	retlw	32	;' '
   285  0016  3400               	retlw	0
   286  0017                     STR_1:
   287  0017  3456               	retlw	86	;'V'
   288  0018  346F               	retlw	111	;'o'
   289  0019  346C               	retlw	108	;'l'
   290  001A  3474               	retlw	116	;'t'
   291  001B  3420               	retlw	32	;' '
   292  001C  343A               	retlw	58	;':'
   293  001D  3420               	retlw	32	;' '
   294  001E  3400               	retlw	0
   295                           
   296                           	psect	cinit
   297  07F8                     start_initialization:	
   298                           ; #config settings
   299                           
   300  07F8                     __initialization:
   301                           
   302                           ; Clear objects allocated to BANK0
   303  07F8  1283               	bcf	3,5	;RP0=0, select bank0
   304  07F9  1303               	bcf	3,6	;RP1=0, select bank0
   305  07FA  01CB               	clrf	__pbssBANK0& (0+127)
   306  07FB  01CC               	clrf	(__pbssBANK0+1)& (0+127)
   307  07FC                     end_of_initialization:	
   308                           ;End of C runtime variable initialization code
   309                           
   310  07FC                     __end_of__initialization:
   311  07FC  0183               	clrf	3
   312  07FD  120A  118A  2ACB   	ljmp	_main	;jump to C main() function
   313                           
   314                           	psect	bssBANK0
   315  004B                     __pbssBANK0:
   316  004B                     _volt:
   317  004B                     	ds	2
   318                           
   319                           	psect	cstackCOMMON
   320  0070                     __pcstackCOMMON:
   321  0070                     ?_lcd_hazirla:
   322  0070                     ?_lcd_yaz:	
   323                           ; 1 bytes @ 0x0
   324                           
   325  0070                     ?_veri_yolla:	
   326                           ; 1 bytes @ 0x0
   327                           
   328  0070                     ?_bekle:	
   329                           ; 1 bytes @ 0x0
   330                           
   331  0070                     ??_bekle:	
   332                           ; 1 bytes @ 0x0
   333                           
   334  0070                     ?_lcd_komut:	
   335                           ; 1 bytes @ 0x0
   336                           
   337  0070                     ?_lcd_sil:	
   338                           ; 1 bytes @ 0x0
   339                           
   340  0070                     ?__Umul8_16:	
   341                           ; 1 bytes @ 0x0
   342                           
   343  0070                     ?_main:	
   344                           ; 2 bytes @ 0x0
   345                           
   346  0070                     ?___awmod:	
   347                           ; 2 bytes @ 0x0
   348                           
   349  0070                     ?___xxtofl:	
   350                           ; 2 bytes @ 0x0
   351                           
   352  0070                     __Umul8_16@multiplicand:	
   353                           ; 4 bytes @ 0x0
   354                           
   355  0070                     ___awmod@divisor:	
   356                           ; 1 bytes @ 0x0
   357                           
   358  0070                     ___xxtofl@val:	
   359                           ; 2 bytes @ 0x0
   360                           
   361                           
   362                           ; 4 bytes @ 0x0
   363  0070                     	ds	1
   364  0071                     ??_veri_yolla:
   365  0071                     ??_lcd_komut:	
   366                           ; 1 bytes @ 0x1
   367                           
   368                           
   369                           ; 1 bytes @ 0x1
   370  0071                     	ds	1
   371  0072                     ??__Umul8_16:
   372  0072                     lcd_komut@c:	
   373                           ; 1 bytes @ 0x2
   374                           
   375  0072                     veri_yolla@c:	
   376                           ; 1 bytes @ 0x2
   377                           
   378  0072                     ___awmod@dividend:	
   379                           ; 1 bytes @ 0x2
   380                           
   381                           
   382                           ; 2 bytes @ 0x2
   383  0072                     	ds	1
   384  0073                     ?_lcd_gotoxy:
   385  0073                     ??_lcd_yaz:	
   386                           ; 1 bytes @ 0x3
   387                           
   388  0073                     ??_lcd_sil:	
   389                           ; 1 bytes @ 0x3
   390                           
   391  0073                     lcd_gotoxy@y:	
   392                           ; 1 bytes @ 0x3
   393                           
   394                           
   395                           ; 1 bytes @ 0x3
   396  0073                     	ds	1
   397  0074                     ??_lcd_gotoxy:
   398  0074                     ??___awmod:	
   399                           ; 1 bytes @ 0x4
   400                           
   401  0074                     ??___xxtofl:	
   402                           ; 1 bytes @ 0x4
   403                           
   404  0074                     lcd_yaz@s:	
   405                           ; 1 bytes @ 0x4
   406                           
   407  0074                     lcd_gotoxy@x:	
   408                           ; 1 bytes @ 0x4
   409                           
   410  0074                     __Umul8_16@product:	
   411                           ; 1 bytes @ 0x4
   412                           
   413                           
   414                           ; 2 bytes @ 0x4
   415  0074                     	ds	1
   416  0075                     ??_lcd_hazirla:
   417  0075                     ___awmod@counter:	
   418                           ; 1 bytes @ 0x5
   419                           
   420                           
   421                           ; 1 bytes @ 0x5
   422  0075                     	ds	1
   423  0076                     ___awmod@sign:
   424  0076                     __Umul8_16@word_mpld:	
   425                           ; 1 bytes @ 0x6
   426                           
   427                           
   428                           ; 2 bytes @ 0x6
   429  0076                     	ds	1
   430  0077                     ?___awdiv:
   431  0077                     ___awdiv@divisor:	
   432                           ; 2 bytes @ 0x7
   433                           
   434                           
   435                           ; 2 bytes @ 0x7
   436  0077                     	ds	1
   437  0078                     __Umul8_16@multiplier:
   438  0078                     ___xxtofl@sign:	
   439                           ; 1 bytes @ 0x8
   440                           
   441                           
   442                           ; 1 bytes @ 0x8
   443  0078                     	ds	1
   444  0079                     ___xxtofl@exp:
   445  0079                     ___awdiv@dividend:	
   446                           ; 1 bytes @ 0x9
   447                           
   448                           
   449                           ; 2 bytes @ 0x9
   450  0079                     	ds	1
   451  007A                     ___xxtofl@arg:
   452                           
   453                           ; 4 bytes @ 0xA
   454  007A                     	ds	1
   455  007B                     ??___awdiv:
   456                           
   457                           ; 1 bytes @ 0xB
   458  007B                     	ds	3
   459                           
   460                           	psect	cstackBANK0
   461  0020                     __pcstackBANK0:
   462  0020                     ?___flmul:
   463  0020                     ___awdiv@counter:	
   464                           ; 4 bytes @ 0x0
   465                           
   466  0020                     ___flmul@b:	
   467                           ; 1 bytes @ 0x0
   468                           
   469                           
   470                           ; 4 bytes @ 0x0
   471  0020                     	ds	1
   472  0021                     ___awdiv@sign:
   473                           
   474                           ; 1 bytes @ 0x1
   475  0021                     	ds	1
   476  0022                     ___awdiv@quotient:
   477                           
   478                           ; 2 bytes @ 0x2
   479  0022                     	ds	2
   480  0024                     ___flmul@a:
   481                           
   482                           ; 4 bytes @ 0x4
   483  0024                     	ds	4
   484  0028                     ??___flmul:
   485                           
   486                           ; 1 bytes @ 0x8
   487  0028                     	ds	5
   488  002D                     ___flmul@sign:
   489                           
   490                           ; 1 bytes @ 0xD
   491  002D                     	ds	1
   492  002E                     ___flmul@grs:
   493                           
   494                           ; 4 bytes @ 0xE
   495  002E                     	ds	4
   496  0032                     ___flmul@aexp:
   497                           
   498                           ; 1 bytes @ 0x12
   499  0032                     	ds	1
   500  0033                     ___flmul@bexp:
   501                           
   502                           ; 1 bytes @ 0x13
   503  0033                     	ds	1
   504  0034                     ___flmul@prod:
   505                           
   506                           ; 4 bytes @ 0x14
   507  0034                     	ds	4
   508  0038                     ___flmul@temp:
   509                           
   510                           ; 2 bytes @ 0x18
   511  0038                     	ds	2
   512  003A                     ?___fltol:
   513  003A                     ___fltol@f1:	
   514                           ; 4 bytes @ 0x1A
   515                           
   516                           
   517                           ; 4 bytes @ 0x1A
   518  003A                     	ds	4
   519  003E                     ??___fltol:
   520                           
   521                           ; 1 bytes @ 0x1E
   522  003E                     	ds	5
   523  0043                     ___fltol@sign1:
   524                           
   525                           ; 1 bytes @ 0x23
   526  0043                     	ds	1
   527  0044                     ___fltol@exp1:
   528                           
   529                           ; 1 bytes @ 0x24
   530  0044                     	ds	1
   531  0045                     ??_main:
   532                           
   533                           ; 1 bytes @ 0x25
   534  0045                     	ds	2
   535  0047                     _main$781:
   536                           
   537                           ; 4 bytes @ 0x27
   538  0047                     	ds	4
   539                           
   540                           	psect	maintext
   541  02CB                     __pmaintext:	
   542 ;;
   543 ;;Main: autosize = 0, tempsize = 2, incstack = 0, save=0
   544 ;;
   545 ;; *************** function _main *****************
   546 ;; Defined at:
   547 ;;		line 19 in file "voltmetre.c"
   548 ;; Parameters:    Size  Location     Type
   549 ;;		None
   550 ;; Auto vars:     Size  Location     Type
   551 ;;		None
   552 ;; Return value:  Size  Location     Type
   553 ;;                  2   34[None  ] int 
   554 ;; Registers used:
   555 ;;		wreg, fsr0l, fsr0h, status,2, status,0, btemp+1, pclath, cstack
   556 ;; Tracked objects:
   557 ;;		On entry : B00/0
   558 ;;		On exit  : 0/0
   559 ;;		Unchanged: 0/0
   560 ;; Data sizes:     COMMON   BANK0   BANK1   BANK3   BANK2
   561 ;;      Params:         0       0       0       0       0
   562 ;;      Locals:         0       4       0       0       0
   563 ;;      Temps:          0       2       0       0       0
   564 ;;      Totals:         0       6       0       0       0
   565 ;;Total ram usage:        6 bytes
   566 ;; Hardware stack levels required when called: 4
   567 ;; This function calls:
   568 ;;		___awdiv
   569 ;;		___awmod
   570 ;;		___flmul
   571 ;;		___fltol
   572 ;;		___xxtofl
   573 ;;		_lcd_gotoxy
   574 ;;		_lcd_hazirla
   575 ;;		_lcd_yaz
   576 ;;		_veri_yolla
   577 ;; This function is called by:
   578 ;;		Startup code after reset
   579 ;; This function uses a non-reentrant model
   580 ;;
   581                           
   582                           
   583                           ;psect for function _main
   584  02CB                     _main:
   585  02CB                     l1493:	
   586                           ;incstack = 0
   587                           ; Regs used in _main: [wreg-fsr0h+status,2+status,0+btemp+1+pclath+cstack]
   588                           
   589                           
   590                           ;voltmetre.c: 21:     TRISA = 0x01;
   591  02CB  3001               	movlw	1
   592  02CC  1683               	bsf	3,5	;RP0=1, select bank1
   593  02CD  1303               	bcf	3,6	;RP1=0, select bank1
   594  02CE  0085               	movwf	5	;volatile
   595  02CF                     l1495:
   596                           
   597                           ;voltmetre.c: 22:     TRISB = 0x00;
   598  02CF  0186               	clrf	6	;volatile
   599  02D0                     l1497:
   600                           
   601                           ;voltmetre.c: 23:     TRISC = 0x00;
   602  02D0  0187               	clrf	7	;volatile
   603  02D1                     l1499:
   604                           
   605                           ;voltmetre.c: 25:     PORTB = 0x00;
   606  02D1  1283               	bcf	3,5	;RP0=0, select bank0
   607  02D2  1303               	bcf	3,6	;RP1=0, select bank0
   608  02D3  0186               	clrf	6	;volatile
   609  02D4                     l1501:
   610                           
   611                           ;voltmetre.c: 26:     PORTC = 0x00;
   612  02D4  0187               	clrf	7	;volatile
   613  02D5                     l1503:
   614                           
   615                           ;voltmetre.c: 28:     ADCON0bits.ADON = 1;
   616  02D5  141F               	bsf	31,0	;volatile
   617  02D6                     l1505:
   618                           
   619                           ;voltmetre.c: 29:     ADCON0bits.GO_DONE = 0;
   620  02D6  111F               	bcf	31,2	;volatile
   621  02D7                     l1507:
   622                           
   623                           ;voltmetre.c: 30:     ADCON0bits.CHS0 = 0;
   624  02D7  119F               	bcf	31,3	;volatile
   625  02D8                     l1509:
   626                           
   627                           ;voltmetre.c: 31:     ADCON0bits.CHS1 = 0;
   628  02D8  121F               	bcf	31,4	;volatile
   629  02D9                     l1511:
   630                           
   631                           ;voltmetre.c: 32:     ADCON0bits.CHS2 = 0;
   632  02D9  129F               	bcf	31,5	;volatile
   633  02DA                     l1513:
   634                           
   635                           ;voltmetre.c: 33:     ADCON0bits.ADCS0 = 0;
   636  02DA  131F               	bcf	31,6	;volatile
   637  02DB                     l1515:
   638                           
   639                           ;voltmetre.c: 34:     ADCON0bits.ADCS1 = 0;
   640  02DB  139F               	bcf	31,7	;volatile
   641  02DC                     l1517:
   642                           
   643                           ;voltmetre.c: 36:     ADCON1bits.PCFG0 = 0;
   644  02DC  1683               	bsf	3,5	;RP0=1, select bank1
   645  02DD  1303               	bcf	3,6	;RP1=0, select bank1
   646  02DE  101F               	bcf	31,0	;volatile
   647  02DF                     l1519:
   648                           
   649                           ;voltmetre.c: 37:     ADCON1bits.PCFG1 = 0;
   650  02DF  109F               	bcf	31,1	;volatile
   651  02E0                     l1521:
   652                           
   653                           ;voltmetre.c: 38:     ADCON1bits.PCFG2 = 0;
   654  02E0  111F               	bcf	31,2	;volatile
   655  02E1                     l1523:
   656                           
   657                           ;voltmetre.c: 39:     ADCON1bits.PCFG3 = 0;
   658  02E1  119F               	bcf	31,3	;volatile
   659  02E2                     l1525:
   660                           
   661                           ;voltmetre.c: 40:     ADCON1bits.ADCS2 = 0;
   662  02E2  131F               	bcf	31,6	;volatile
   663  02E3                     l1527:
   664                           
   665                           ;voltmetre.c: 42:     ADCON1bits.ADFM = 1;
   666  02E3  179F               	bsf	31,7	;volatile
   667  02E4                     l1529:
   668                           
   669                           ;voltmetre.c: 47:     lcd_hazirla();
   670  02E4  120A  118A  2095  120A  118A  	fcall	_lcd_hazirla
   671  02E9                     l1531:
   672                           
   673                           ;voltmetre.c: 51:         ADCON0bits.GO_DONE = 1;
   674  02E9  1283               	bcf	3,5	;RP0=0, select bank0
   675  02EA  1303               	bcf	3,6	;RP1=0, select bank0
   676  02EB  151F               	bsf	31,2	;volatile
   677  02EC                     l36:	
   678                           ;voltmetre.c: 52:         while(ADCON0bits.GO_DONE){};
   679                           
   680  02EC  191F               	btfsc	31,2	;volatile
   681  02ED  2AEF               	goto	u1761
   682  02EE  2AF0               	goto	u1760
   683  02EF                     u1761:
   684  02EF  2AEC               	goto	l36
   685  02F0                     u1760:
   686  02F0                     l1533:
   687                           
   688                           ;voltmetre.c: 53:         volt = (int16_t)((ADRESH*256+ADRESL)*oran*100.0);
   689  02F0  081E               	movf	30,w	;volatile
   690  02F1  00C5               	movwf	??_main
   691  02F2  01C6               	clrf	??_main+1
   692  02F3  0845               	movf	??_main,w
   693  02F4  00C6               	movwf	??_main+1
   694  02F5  01C5               	clrf	??_main
   695  02F6  1683               	bsf	3,5	;RP0=1, select bank1
   696  02F7  1303               	bcf	3,6	;RP1=0, select bank1
   697  02F8  081E               	movf	30,w	;volatile
   698  02F9  1283               	bcf	3,5	;RP0=0, select bank0
   699  02FA  1303               	bcf	3,6	;RP1=0, select bank0
   700  02FB  0745               	addwf	??_main,w
   701  02FC  00F0               	movwf	___xxtofl@val
   702  02FD  3000               	movlw	0
   703  02FE  1803               	skipnc
   704  02FF  3001               	movlw	1
   705  0300  0746               	addwf	??_main+1,w
   706  0301  00F1               	movwf	___xxtofl@val+1
   707  0302  01F2               	clrf	___xxtofl@val+2
   708  0303  1BF1               	btfsc	___xxtofl@val+1,7
   709  0304  03F2               	decf	___xxtofl@val+2,f
   710  0305  0872               	movf	___xxtofl@val+2,w
   711  0306  00F3               	movwf	___xxtofl@val+3
   712  0307  3001               	movlw	1
   713  0308  120A  118A  2211  120A  118A  	fcall	___xxtofl
   714  030D  0873               	movf	?___xxtofl+3,w
   715  030E  1283               	bcf	3,5	;RP0=0, select bank0
   716  030F  1303               	bcf	3,6	;RP1=0, select bank0
   717  0310  00A7               	movwf	___flmul@a+3
   718  0311  0872               	movf	?___xxtofl+2,w
   719  0312  00A6               	movwf	___flmul@a+2
   720  0313  0871               	movf	?___xxtofl+1,w
   721  0314  00A5               	movwf	___flmul@a+1
   722  0315  0870               	movf	?___xxtofl,w
   723  0316  00A4               	movwf	___flmul@a
   724  0317  303B               	movlw	59
   725  0318  00A3               	movwf	___flmul@b+3
   726  0319  30A0               	movlw	160
   727  031A  00A2               	movwf	___flmul@b+2
   728  031B  3028               	movlw	40
   729  031C  00A1               	movwf	___flmul@b+1
   730  031D  300A               	movlw	10
   731  031E  00A0               	movwf	___flmul@b
   732  031F  120A  118A  2497  120A  118A  	fcall	___flmul
   733  0324  1283               	bcf	3,5	;RP0=0, select bank0
   734  0325  1303               	bcf	3,6	;RP1=0, select bank0
   735  0326  0823               	movf	?___flmul+3,w
   736  0327  00CA               	movwf	_main$781+3
   737  0328  0822               	movf	?___flmul+2,w
   738  0329  00C9               	movwf	_main$781+2
   739  032A  0821               	movf	?___flmul+1,w
   740  032B  00C8               	movwf	_main$781+1
   741  032C  0820               	movf	?___flmul,w
   742  032D  00C7               	movwf	_main$781
   743                           
   744                           ;voltmetre.c: 53:         volt = (int16_t)((ADRESH*256+ADRESL)*oran*100.0);
   745  032E  084A               	movf	_main$781+3,w
   746  032F  00A7               	movwf	___flmul@a+3
   747  0330  0849               	movf	_main$781+2,w
   748  0331  00A6               	movwf	___flmul@a+2
   749  0332  0848               	movf	_main$781+1,w
   750  0333  00A5               	movwf	___flmul@a+1
   751  0334  0847               	movf	_main$781,w
   752  0335  00A4               	movwf	___flmul@a
   753  0336  3042               	movlw	66
   754  0337  00A3               	movwf	___flmul@b+3
   755  0338  30C8               	movlw	200
   756  0339  00A2               	movwf	___flmul@b+2
   757  033A  3000               	movlw	0
   758  033B  00A1               	movwf	___flmul@b+1
   759  033C  3000               	movlw	0
   760  033D  00A0               	movwf	___flmul@b
   761  033E  120A  118A  2497  120A  118A  	fcall	___flmul
   762  0343  1283               	bcf	3,5	;RP0=0, select bank0
   763  0344  1303               	bcf	3,6	;RP1=0, select bank0
   764  0345  0823               	movf	?___flmul+3,w
   765  0346  00BD               	movwf	___fltol@f1+3
   766  0347  0822               	movf	?___flmul+2,w
   767  0348  00BC               	movwf	___fltol@f1+2
   768  0349  0821               	movf	?___flmul+1,w
   769  034A  00BB               	movwf	___fltol@f1+1
   770  034B  0820               	movf	?___flmul,w
   771  034C  00BA               	movwf	___fltol@f1
   772  034D  120A  118A  2195  120A  118A  	fcall	___fltol
   773  0352  1283               	bcf	3,5	;RP0=0, select bank0
   774  0353  1303               	bcf	3,6	;RP1=0, select bank0
   775  0354  083B               	movf	?___fltol+1,w
   776  0355  00CC               	movwf	_volt+1
   777  0356  083A               	movf	?___fltol,w
   778  0357  00CB               	movwf	_volt
   779  0358                     l1535:
   780                           
   781                           ;voltmetre.c: 54:         lcd_gotoxy(1,1);
   782  0358  01F3               	clrf	lcd_gotoxy@y
   783  0359  0AF3               	incf	lcd_gotoxy@y,f
   784  035A  3001               	movlw	1
   785  035B  120A  158A  27C2  120A  118A  	fcall	_lcd_gotoxy
   786  0360                     l1537:
   787                           
   788                           ;voltmetre.c: 55:         lcd_yaz("Volt : ");
   789  0360  300F               	movlw	(low ((STR_1-__stringbase)| (0+32768)))& (0+255)
   790  0361  120A  158A  27DC  120A  118A  	fcall	_lcd_yaz
   791  0366                     l1539:
   792                           
   793                           ;voltmetre.c: 56:         veri_yolla((volt%1000)/100+48);
   794  0366  3064               	movlw	100
   795  0367  00F7               	movwf	___awdiv@divisor
   796  0368  3000               	movlw	0
   797  0369  00F8               	movwf	___awdiv@divisor+1
   798  036A  1283               	bcf	3,5	;RP0=0, select bank0
   799  036B  1303               	bcf	3,6	;RP1=0, select bank0
   800  036C  084C               	movf	_volt+1,w
   801  036D  00F3               	movwf	___awmod@dividend+1
   802  036E  084B               	movf	_volt,w
   803  036F  00F2               	movwf	___awmod@dividend
   804  0370  30E8               	movlw	232
   805  0371  00F0               	movwf	___awmod@divisor
   806  0372  3003               	movlw	3
   807  0373  00F1               	movwf	___awmod@divisor+1
   808  0374  120A  118A  20D3  120A  118A  	fcall	___awmod
   809  0379  0871               	movf	?___awmod+1,w
   810  037A  00FA               	movwf	___awdiv@dividend+1
   811  037B  0870               	movf	?___awmod,w
   812  037C  00F9               	movwf	___awdiv@dividend
   813  037D  120A  118A  212C  120A  118A  	fcall	___awdiv
   814  0382  0877               	movf	?___awdiv,w
   815  0383  3E30               	addlw	48
   816  0384  120A  118A  2049  120A  118A  	fcall	_veri_yolla
   817  0389                     l1541:
   818                           
   819                           ;voltmetre.c: 57:         veri_yolla('.');
   820  0389  302E               	movlw	46
   821  038A  120A  118A  2049  120A  118A  	fcall	_veri_yolla
   822  038F                     l1543:
   823                           
   824                           ;voltmetre.c: 58:         veri_yolla((volt%100)/10+48);
   825  038F  300A               	movlw	10
   826  0390  00F7               	movwf	___awdiv@divisor
   827  0391  3000               	movlw	0
   828  0392  00F8               	movwf	___awdiv@divisor+1
   829  0393  1283               	bcf	3,5	;RP0=0, select bank0
   830  0394  1303               	bcf	3,6	;RP1=0, select bank0
   831  0395  084C               	movf	_volt+1,w
   832  0396  00F3               	movwf	___awmod@dividend+1
   833  0397  084B               	movf	_volt,w
   834  0398  00F2               	movwf	___awmod@dividend
   835  0399  3064               	movlw	100
   836  039A  00F0               	movwf	___awmod@divisor
   837  039B  3000               	movlw	0
   838  039C  00F1               	movwf	___awmod@divisor+1
   839  039D  120A  118A  20D3  120A  118A  	fcall	___awmod
   840  03A2  0871               	movf	?___awmod+1,w
   841  03A3  00FA               	movwf	___awdiv@dividend+1
   842  03A4  0870               	movf	?___awmod,w
   843  03A5  00F9               	movwf	___awdiv@dividend
   844  03A6  120A  118A  212C  120A  118A  	fcall	___awdiv
   845  03AB  0877               	movf	?___awdiv,w
   846  03AC  3E30               	addlw	48
   847  03AD  120A  118A  2049  120A  118A  	fcall	_veri_yolla
   848  03B2                     l1545:
   849                           
   850                           ;voltmetre.c: 59:         veri_yolla((volt%10)+48);
   851  03B2  300A               	movlw	10
   852  03B3  00F0               	movwf	___awmod@divisor
   853  03B4  3000               	movlw	0
   854  03B5  00F1               	movwf	___awmod@divisor+1
   855  03B6  1283               	bcf	3,5	;RP0=0, select bank0
   856  03B7  1303               	bcf	3,6	;RP1=0, select bank0
   857  03B8  084C               	movf	_volt+1,w
   858  03B9  00F3               	movwf	___awmod@dividend+1
   859  03BA  084B               	movf	_volt,w
   860  03BB  00F2               	movwf	___awmod@dividend
   861  03BC  120A  118A  20D3  120A  118A  	fcall	___awmod
   862  03C1  0870               	movf	?___awmod,w
   863  03C2  3E30               	addlw	48
   864  03C3  120A  118A  2049  120A  118A  	fcall	_veri_yolla
   865  03C8                     l1547:
   866                           
   867                           ;voltmetre.c: 60:         veri_yolla('V');
   868  03C8  3056               	movlw	86
   869  03C9  120A  118A  2049  120A  118A  	fcall	_veri_yolla
   870  03CE                     l1549:
   871                           
   872                           ;voltmetre.c: 62:         lcd_gotoxy(2,1);
   873  03CE  01F3               	clrf	lcd_gotoxy@y
   874  03CF  0AF3               	incf	lcd_gotoxy@y,f
   875  03D0  3002               	movlw	2
   876  03D1  120A  158A  27C2  120A  118A  	fcall	_lcd_gotoxy
   877  03D6                     l1551:
   878                           
   879                           ;voltmetre.c: 63:         lcd_yaz("Analog : ");
   880  03D6  3005               	movlw	(low ((STR_2-__stringbase)| (0+32768)))& (0+255)
   881  03D7  120A  158A  27DC  120A  118A  	fcall	_lcd_yaz
   882  03DC                     l1553:
   883                           
   884                           ;voltmetre.c: 65:         veri_yolla(((ADRESH*256+ADRESL)%10000)/1000+48);
   885  03DC  30E8               	movlw	232
   886  03DD  00F7               	movwf	___awdiv@divisor
   887  03DE  3003               	movlw	3
   888  03DF  00F8               	movwf	___awdiv@divisor+1
   889  03E0  1283               	bcf	3,5	;RP0=0, select bank0
   890  03E1  1303               	bcf	3,6	;RP1=0, select bank0
   891  03E2  081E               	movf	30,w	;volatile
   892  03E3  00C5               	movwf	??_main
   893  03E4  01C6               	clrf	??_main+1
   894  03E5  0845               	movf	??_main,w
   895  03E6  00C6               	movwf	??_main+1
   896  03E7  01C5               	clrf	??_main
   897  03E8  1683               	bsf	3,5	;RP0=1, select bank1
   898  03E9  1303               	bcf	3,6	;RP1=0, select bank1
   899  03EA  081E               	movf	30,w	;volatile
   900  03EB  1283               	bcf	3,5	;RP0=0, select bank0
   901  03EC  1303               	bcf	3,6	;RP1=0, select bank0
   902  03ED  0745               	addwf	??_main,w
   903  03EE  00F2               	movwf	___awmod@dividend
   904  03EF  3000               	movlw	0
   905  03F0  1803               	skipnc
   906  03F1  3001               	movlw	1
   907  03F2  0746               	addwf	??_main+1,w
   908  03F3  00F3               	movwf	___awmod@dividend+1
   909  03F4  3010               	movlw	16
   910  03F5  00F0               	movwf	___awmod@divisor
   911  03F6  3027               	movlw	39
   912  03F7  00F1               	movwf	___awmod@divisor+1
   913  03F8  120A  118A  20D3  120A  118A  	fcall	___awmod
   914  03FD  0871               	movf	?___awmod+1,w
   915  03FE  00FA               	movwf	___awdiv@dividend+1
   916  03FF  0870               	movf	?___awmod,w
   917  0400  00F9               	movwf	___awdiv@dividend
   918  0401  120A  118A  212C  120A  118A  	fcall	___awdiv
   919  0406  0877               	movf	?___awdiv,w
   920  0407  3E30               	addlw	48
   921  0408  120A  118A  2049  120A  118A  	fcall	_veri_yolla
   922  040D                     l1555:
   923                           
   924                           ;voltmetre.c: 66:         veri_yolla(((ADRESH*256+ADRESL)%1000)/100+48);
   925  040D  3064               	movlw	100
   926  040E  00F7               	movwf	___awdiv@divisor
   927  040F  3000               	movlw	0
   928  0410  00F8               	movwf	___awdiv@divisor+1
   929  0411  1283               	bcf	3,5	;RP0=0, select bank0
   930  0412  1303               	bcf	3,6	;RP1=0, select bank0
   931  0413  081E               	movf	30,w	;volatile
   932  0414  00C5               	movwf	??_main
   933  0415  01C6               	clrf	??_main+1
   934  0416  0845               	movf	??_main,w
   935  0417  00C6               	movwf	??_main+1
   936  0418  01C5               	clrf	??_main
   937  0419  1683               	bsf	3,5	;RP0=1, select bank1
   938  041A  1303               	bcf	3,6	;RP1=0, select bank1
   939  041B  081E               	movf	30,w	;volatile
   940  041C  1283               	bcf	3,5	;RP0=0, select bank0
   941  041D  1303               	bcf	3,6	;RP1=0, select bank0
   942  041E  0745               	addwf	??_main,w
   943  041F  00F2               	movwf	___awmod@dividend
   944  0420  3000               	movlw	0
   945  0421  1803               	skipnc
   946  0422  3001               	movlw	1
   947  0423  0746               	addwf	??_main+1,w
   948  0424  00F3               	movwf	___awmod@dividend+1
   949  0425  30E8               	movlw	232
   950  0426  00F0               	movwf	___awmod@divisor
   951  0427  3003               	movlw	3
   952  0428  00F1               	movwf	___awmod@divisor+1
   953  0429  120A  118A  20D3  120A  118A  	fcall	___awmod
   954  042E  0871               	movf	?___awmod+1,w
   955  042F  00FA               	movwf	___awdiv@dividend+1
   956  0430  0870               	movf	?___awmod,w
   957  0431  00F9               	movwf	___awdiv@dividend
   958  0432  120A  118A  212C  120A  118A  	fcall	___awdiv
   959  0437  0877               	movf	?___awdiv,w
   960  0438  3E30               	addlw	48
   961  0439  120A  118A  2049  120A  118A  	fcall	_veri_yolla
   962  043E                     l1557:
   963                           
   964                           ;voltmetre.c: 67:         veri_yolla(((ADRESH*256+ADRESL)%100)/10+48);
   965  043E  300A               	movlw	10
   966  043F  00F7               	movwf	___awdiv@divisor
   967  0440  3000               	movlw	0
   968  0441  00F8               	movwf	___awdiv@divisor+1
   969  0442  1283               	bcf	3,5	;RP0=0, select bank0
   970  0443  1303               	bcf	3,6	;RP1=0, select bank0
   971  0444  081E               	movf	30,w	;volatile
   972  0445  00C5               	movwf	??_main
   973  0446  01C6               	clrf	??_main+1
   974  0447  0845               	movf	??_main,w
   975  0448  00C6               	movwf	??_main+1
   976  0449  01C5               	clrf	??_main
   977  044A  1683               	bsf	3,5	;RP0=1, select bank1
   978  044B  1303               	bcf	3,6	;RP1=0, select bank1
   979  044C  081E               	movf	30,w	;volatile
   980  044D  1283               	bcf	3,5	;RP0=0, select bank0
   981  044E  1303               	bcf	3,6	;RP1=0, select bank0
   982  044F  0745               	addwf	??_main,w
   983  0450  00F2               	movwf	___awmod@dividend
   984  0451  3000               	movlw	0
   985  0452  1803               	skipnc
   986  0453  3001               	movlw	1
   987  0454  0746               	addwf	??_main+1,w
   988  0455  00F3               	movwf	___awmod@dividend+1
   989  0456  3064               	movlw	100
   990  0457  00F0               	movwf	___awmod@divisor
   991  0458  3000               	movlw	0
   992  0459  00F1               	movwf	___awmod@divisor+1
   993  045A  120A  118A  20D3  120A  118A  	fcall	___awmod
   994  045F  0871               	movf	?___awmod+1,w
   995  0460  00FA               	movwf	___awdiv@dividend+1
   996  0461  0870               	movf	?___awmod,w
   997  0462  00F9               	movwf	___awdiv@dividend
   998  0463  120A  118A  212C  120A  118A  	fcall	___awdiv
   999  0468  0877               	movf	?___awdiv,w
  1000  0469  3E30               	addlw	48
  1001  046A  120A  118A  2049  120A  118A  	fcall	_veri_yolla
  1002  046F                     l1559:
  1003                           
  1004                           ;voltmetre.c: 68:         veri_yolla(((ADRESH*256+ADRESL)%10)+48);
  1005  046F  300A               	movlw	10
  1006  0470  00F0               	movwf	___awmod@divisor
  1007  0471  3000               	movlw	0
  1008  0472  00F1               	movwf	___awmod@divisor+1
  1009  0473  1283               	bcf	3,5	;RP0=0, select bank0
  1010  0474  1303               	bcf	3,6	;RP1=0, select bank0
  1011  0475  081E               	movf	30,w	;volatile
  1012  0476  00C5               	movwf	??_main
  1013  0477  01C6               	clrf	??_main+1
  1014  0478  0845               	movf	??_main,w
  1015  0479  00C6               	movwf	??_main+1
  1016  047A  01C5               	clrf	??_main
  1017  047B  1683               	bsf	3,5	;RP0=1, select bank1
  1018  047C  1303               	bcf	3,6	;RP1=0, select bank1
  1019  047D  081E               	movf	30,w	;volatile
  1020  047E  1283               	bcf	3,5	;RP0=0, select bank0
  1021  047F  1303               	bcf	3,6	;RP1=0, select bank0
  1022  0480  0745               	addwf	??_main,w
  1023  0481  00F2               	movwf	___awmod@dividend
  1024  0482  3000               	movlw	0
  1025  0483  1803               	skipnc
  1026  0484  3001               	movlw	1
  1027  0485  0746               	addwf	??_main+1,w
  1028  0486  00F3               	movwf	___awmod@dividend+1
  1029  0487  120A  118A  20D3  120A  118A  	fcall	___awmod
  1030  048C  0870               	movf	?___awmod,w
  1031  048D  3E30               	addlw	48
  1032  048E  120A  118A  2049  120A  118A  	fcall	_veri_yolla
  1033  0493  2AE9               	goto	l1531
  1034  0494  120A  118A  2800   	ljmp	start
  1035  0497                     __end_of_main:
  1036                           
  1037                           	psect	text1
  1038  0FDC                     __ptext1:	
  1039 ;; *************** function _lcd_yaz *****************
  1040 ;; Defined at:
  1041 ;;		line 38 in file "lcd_library.c"
  1042 ;; Parameters:    Size  Location     Type
  1043 ;;  s               1    wreg     PTR const unsigned char 
  1044 ;;		 -> STR_2(10), STR_1(8), 
  1045 ;; Auto vars:     Size  Location     Type
  1046 ;;  s               1    4[COMMON] PTR const unsigned char 
  1047 ;;		 -> STR_2(10), STR_1(8), 
  1048 ;; Return value:  Size  Location     Type
  1049 ;;                  1    wreg      void 
  1050 ;; Registers used:
  1051 ;;		wreg, fsr0l, fsr0h, status,2, status,0, pclath, cstack
  1052 ;; Tracked objects:
  1053 ;;		On entry : 0/0
  1054 ;;		On exit  : 0/0
  1055 ;;		Unchanged: 0/0
  1056 ;; Data sizes:     COMMON   BANK0   BANK1   BANK3   BANK2
  1057 ;;      Params:         0       0       0       0       0
  1058 ;;      Locals:         1       0       0       0       0
  1059 ;;      Temps:          1       0       0       0       0
  1060 ;;      Totals:         2       0       0       0       0
  1061 ;;Total ram usage:        2 bytes
  1062 ;; Hardware stack levels used: 1
  1063 ;; Hardware stack levels required when called: 2
  1064 ;; This function calls:
  1065 ;;		_bekle
  1066 ;;		_veri_yolla
  1067 ;; This function is called by:
  1068 ;;		_main
  1069 ;; This function uses a non-reentrant model
  1070 ;;
  1071                           
  1072                           
  1073                           ;psect for function _lcd_yaz
  1074  0FDC                     _lcd_yaz:
  1075                           
  1076                           ;incstack = 0
  1077                           ; Regs used in _lcd_yaz: [wreg-fsr0h+status,2+status,0+pclath+cstack]
  1078                           ;lcd_yaz@s stored from wreg
  1079  0FDC  00F4               	movwf	lcd_yaz@s
  1080  0FDD                     l1183:
  1081                           
  1082                           ;lcd_library.c: 39:     bekle();
  1083  0FDD  120A  118A  201F  120A  158A  	fcall	_bekle
  1084                           
  1085                           ;lcd_library.c: 40:     while(*s){
  1086  0FE2  2FF3               	goto	l1189
  1087  0FE3                     l1185:
  1088                           
  1089                           ;lcd_library.c: 41:         veri_yolla(*s++);
  1090  0FE3  0874               	movf	lcd_yaz@s,w
  1091  0FE4  0084               	movwf	4
  1092  0FE5  120A  118A  2003  120A  158A  	fcall	stringdir
  1093  0FEA  120A  118A  2049  120A  158A  	fcall	_veri_yolla
  1094  0FEF                     l1187:
  1095  0FEF  3001               	movlw	1
  1096  0FF0  00F3               	movwf	??_lcd_yaz
  1097  0FF1  0873               	movf	??_lcd_yaz,w
  1098  0FF2  07F4               	addwf	lcd_yaz@s,f
  1099  0FF3                     l1189:
  1100                           
  1101                           ;lcd_library.c: 40:     while(*s){
  1102  0FF3  0874               	movf	lcd_yaz@s,w
  1103  0FF4  0084               	movwf	4
  1104  0FF5  120A  118A  2003  120A  158A  	fcall	stringdir
  1105  0FFA  3A00               	xorlw	0
  1106  0FFB  1D03               	skipz
  1107  0FFC  2FFE               	goto	u951
  1108  0FFD  2FFF               	goto	u950
  1109  0FFE                     u951:
  1110  0FFE  2FE3               	goto	l1185
  1111  0FFF                     u950:
  1112  0FFF                     l69:
  1113  0FFF  0008               	return
  1114  1000                     __end_of_lcd_yaz:
  1115                           
  1116                           	psect	text2
  1117  0049                     __ptext2:	
  1118 ;; *************** function _veri_yolla *****************
  1119 ;; Defined at:
  1120 ;;		line 22 in file "lcd_library.c"
  1121 ;; Parameters:    Size  Location     Type
  1122 ;;  c               1    wreg     unsigned char 
  1123 ;; Auto vars:     Size  Location     Type
  1124 ;;  c               1    2[COMMON] unsigned char 
  1125 ;; Return value:  Size  Location     Type
  1126 ;;                  1    wreg      void 
  1127 ;; Registers used:
  1128 ;;		wreg, status,2, status,0, pclath, cstack
  1129 ;; Tracked objects:
  1130 ;;		On entry : 0/0
  1131 ;;		On exit  : 0/0
  1132 ;;		Unchanged: 0/0
  1133 ;; Data sizes:     COMMON   BANK0   BANK1   BANK3   BANK2
  1134 ;;      Params:         0       0       0       0       0
  1135 ;;      Locals:         1       0       0       0       0
  1136 ;;      Temps:          1       0       0       0       0
  1137 ;;      Totals:         2       0       0       0       0
  1138 ;;Total ram usage:        2 bytes
  1139 ;; Hardware stack levels used: 1
  1140 ;; Hardware stack levels required when called: 1
  1141 ;; This function calls:
  1142 ;;		_bekle
  1143 ;; This function is called by:
  1144 ;;		_main
  1145 ;;		_lcd_yaz
  1146 ;; This function uses a non-reentrant model
  1147 ;;
  1148                           
  1149                           
  1150                           ;psect for function _veri_yolla
  1151  0049                     _veri_yolla:
  1152                           
  1153                           ;incstack = 0
  1154                           ; Regs used in _veri_yolla: [wreg+status,2+status,0+pclath+cstack]
  1155                           ;veri_yolla@c stored from wreg
  1156  0049  00F2               	movwf	veri_yolla@c
  1157  004A                     l1133:
  1158                           
  1159                           ;lcd_library.c: 23:     RB1=0;
  1160  004A  1283               	bcf	3,5	;RP0=0, select bank0
  1161  004B  1303               	bcf	3,6	;RP1=0, select bank0
  1162  004C  1086               	bcf	6,1	;volatile
  1163                           
  1164                           ;lcd_library.c: 24:     RB0=1;
  1165  004D  1406               	bsf	6,0	;volatile
  1166                           
  1167                           ;lcd_library.c: 25:     RB2=1;
  1168  004E  1506               	bsf	6,2	;volatile
  1169  004F                     l1135:
  1170                           
  1171                           ;lcd_library.c: 26:     PORTC = (c & 0xF0);
  1172  004F  0872               	movf	veri_yolla@c,w
  1173  0050  39F0               	andlw	240
  1174  0051  0087               	movwf	7	;volatile
  1175  0052                     l1137:
  1176                           
  1177                           ;lcd_library.c: 27:     RB2=0;
  1178  0052  1106               	bcf	6,2	;volatile
  1179  0053                     l1139:
  1180                           
  1181                           ;lcd_library.c: 28:     bekle();
  1182  0053  120A  118A  201F  120A  118A  	fcall	_bekle
  1183  0058                     l1141:
  1184                           
  1185                           ;lcd_library.c: 29:     RB2=1;
  1186  0058  1283               	bcf	3,5	;RP0=0, select bank0
  1187  0059  1303               	bcf	3,6	;RP1=0, select bank0
  1188  005A  1506               	bsf	6,2	;volatile
  1189  005B                     l1143:
  1190                           
  1191                           ;lcd_library.c: 30:     PORTC = ( (c & 0x0F)<<4 );
  1192  005B  0872               	movf	veri_yolla@c,w
  1193  005C  390F               	andlw	15
  1194  005D  00F1               	movwf	??_veri_yolla
  1195  005E  3003               	movlw	3
  1196  005F                     u905:
  1197  005F  1003               	clrc
  1198  0060  0DF1               	rlf	??_veri_yolla,f
  1199  0061  3EFF               	addlw	-1
  1200  0062  1D03               	skipz
  1201  0063  285F               	goto	u905
  1202  0064  1003               	clrc
  1203  0065  0D71               	rlf	??_veri_yolla,w
  1204  0066  0087               	movwf	7	;volatile
  1205  0067                     l1145:
  1206                           
  1207                           ;lcd_library.c: 31:     RB2=0;
  1208  0067  1106               	bcf	6,2	;volatile
  1209  0068                     l1147:
  1210                           
  1211                           ;lcd_library.c: 32:     bekle();
  1212  0068  120A  118A  201F  120A  118A  	fcall	_bekle
  1213  006D                     l60:
  1214  006D  0008               	return
  1215  006E                     __end_of_veri_yolla:
  1216                           
  1217                           	psect	text3
  1218  0095                     __ptext3:	
  1219 ;; *************** function _lcd_hazirla *****************
  1220 ;; Defined at:
  1221 ;;		line 50 in file "lcd_library.c"
  1222 ;; Parameters:    Size  Location     Type
  1223 ;;		None
  1224 ;; Auto vars:     Size  Location     Type
  1225 ;;		None
  1226 ;; Return value:  Size  Location     Type
  1227 ;;                  1    wreg      void 
  1228 ;; Registers used:
  1229 ;;		wreg, status,2, status,0, pclath, cstack
  1230 ;; Tracked objects:
  1231 ;;		On entry : 0/0
  1232 ;;		On exit  : 0/0
  1233 ;;		Unchanged: 0/0
  1234 ;; Data sizes:     COMMON   BANK0   BANK1   BANK3   BANK2
  1235 ;;      Params:         0       0       0       0       0
  1236 ;;      Locals:         0       0       0       0       0
  1237 ;;      Temps:          2       0       0       0       0
  1238 ;;      Totals:         2       0       0       0       0
  1239 ;;Total ram usage:        2 bytes
  1240 ;; Hardware stack levels used: 1
  1241 ;; Hardware stack levels required when called: 3
  1242 ;; This function calls:
  1243 ;;		_lcd_komut
  1244 ;;		_lcd_sil
  1245 ;; This function is called by:
  1246 ;;		_main
  1247 ;; This function uses a non-reentrant model
  1248 ;;
  1249                           
  1250                           
  1251                           ;psect for function _lcd_hazirla
  1252  0095                     _lcd_hazirla:
  1253  0095                     l1167:	
  1254                           ;incstack = 0
  1255                           ; Regs used in _lcd_hazirla: [wreg+status,2+status,0+pclath+cstack]
  1256                           
  1257                           
  1258                           ;lcd_library.c: 51:     RB0=0;
  1259  0095  1283               	bcf	3,5	;RP0=0, select bank0
  1260  0096  1303               	bcf	3,6	;RP1=0, select bank0
  1261  0097  1006               	bcf	6,0	;volatile
  1262                           
  1263                           ;lcd_library.c: 52:     RB2=0;
  1264  0098  1106               	bcf	6,2	;volatile
  1265                           
  1266                           ;lcd_library.c: 53:     RB1=0;
  1267  0099  1086               	bcf	6,1	;volatile
  1268  009A                     l1169:
  1269                           
  1270                           ;lcd_library.c: 54:     _delay((unsigned long)((15)*(4000000/4000.0)));
  1271  009A  3014               	movlw	20
  1272  009B  00F6               	movwf	??_lcd_hazirla+1
  1273  009C  3079               	movlw	121
  1274  009D  00F5               	movwf	??_lcd_hazirla
  1275  009E                     u1777:
  1276  009E  0BF5               	decfsz	??_lcd_hazirla,f
  1277  009F  289E               	goto	u1777
  1278  00A0  0BF6               	decfsz	??_lcd_hazirla+1,f
  1279  00A1  289E               	goto	u1777
  1280  00A2  28A3               	nop2
  1281  00A3                     l1171:
  1282                           
  1283                           ;lcd_library.c: 55:     RB2=1;
  1284  00A3  1283               	bcf	3,5	;RP0=0, select bank0
  1285  00A4  1303               	bcf	3,6	;RP1=0, select bank0
  1286  00A5  1506               	bsf	6,2	;volatile
  1287  00A6                     l1173:
  1288                           
  1289                           ;lcd_library.c: 56:     lcd_komut(0x02);
  1290  00A6  3002               	movlw	2
  1291  00A7  120A  118A  2024  120A  118A  	fcall	_lcd_komut
  1292  00AC                     l1175:
  1293                           
  1294                           ;lcd_library.c: 57:     _delay((unsigned long)((2)*(4000000/4000.0)));
  1295  00AC  3003               	movlw	3
  1296  00AD  00F6               	movwf	??_lcd_hazirla+1
  1297  00AE  3097               	movlw	151
  1298  00AF  00F5               	movwf	??_lcd_hazirla
  1299  00B0                     u1787:
  1300  00B0  0BF5               	decfsz	??_lcd_hazirla,f
  1301  00B1  28B0               	goto	u1787
  1302  00B2  0BF6               	decfsz	??_lcd_hazirla+1,f
  1303  00B3  28B0               	goto	u1787
  1304  00B4  28B5               	nop2
  1305                           
  1306                           ;lcd_library.c: 58:     lcd_komut(40);
  1307  00B5  3028               	movlw	40
  1308  00B6  120A  118A  2024  120A  118A  	fcall	_lcd_komut
  1309                           
  1310                           ;lcd_library.c: 59:     lcd_komut(6);
  1311  00BB  3006               	movlw	6
  1312  00BC  120A  118A  2024  120A  118A  	fcall	_lcd_komut
  1313                           
  1314                           ;lcd_library.c: 60:     lcd_komut(12);
  1315  00C1  300C               	movlw	12
  1316  00C2  120A  118A  2024  120A  118A  	fcall	_lcd_komut
  1317                           
  1318                           ;lcd_library.c: 61:     lcd_sil();
  1319  00C7  120A  158A  27B2  120A  118A  	fcall	_lcd_sil
  1320                           
  1321                           ;lcd_library.c: 62:     lcd_komut(128);
  1322  00CC  3080               	movlw	128
  1323  00CD  120A  118A  2024  120A  118A  	fcall	_lcd_komut
  1324  00D2                     l77:
  1325  00D2  0008               	return
  1326  00D3                     __end_of_lcd_hazirla:
  1327                           
  1328                           	psect	text4
  1329  0FB2                     __ptext4:	
  1330 ;; *************** function _lcd_sil *****************
  1331 ;; Defined at:
  1332 ;;		line 34 in file "lcd_library.c"
  1333 ;; Parameters:    Size  Location     Type
  1334 ;;		None
  1335 ;; Auto vars:     Size  Location     Type
  1336 ;;		None
  1337 ;; Return value:  Size  Location     Type
  1338 ;;                  1    wreg      void 
  1339 ;; Registers used:
  1340 ;;		wreg, status,2, status,0, pclath, cstack
  1341 ;; Tracked objects:
  1342 ;;		On entry : 0/0
  1343 ;;		On exit  : 0/0
  1344 ;;		Unchanged: 0/0
  1345 ;; Data sizes:     COMMON   BANK0   BANK1   BANK3   BANK2
  1346 ;;      Params:         0       0       0       0       0
  1347 ;;      Locals:         0       0       0       0       0
  1348 ;;      Temps:          2       0       0       0       0
  1349 ;;      Totals:         2       0       0       0       0
  1350 ;;Total ram usage:        2 bytes
  1351 ;; Hardware stack levels used: 1
  1352 ;; Hardware stack levels required when called: 2
  1353 ;; This function calls:
  1354 ;;		_lcd_komut
  1355 ;; This function is called by:
  1356 ;;		_lcd_hazirla
  1357 ;; This function uses a non-reentrant model
  1358 ;;
  1359                           
  1360                           
  1361                           ;psect for function _lcd_sil
  1362  0FB2                     _lcd_sil:
  1363  0FB2                     l1149:	
  1364                           ;incstack = 0
  1365                           ; Regs used in _lcd_sil: [wreg+status,2+status,0+pclath+cstack]
  1366                           
  1367                           
  1368                           ;lcd_library.c: 35:     lcd_komut(1);
  1369  0FB2  3001               	movlw	1
  1370  0FB3  120A  118A  2024  120A  158A  	fcall	_lcd_komut
  1371  0FB8                     l1151:
  1372                           
  1373                           ;lcd_library.c: 36:     _delay((unsigned long)((2)*(4000000/4000.0)));
  1374  0FB8  3003               	movlw	3
  1375  0FB9  00F4               	movwf	??_lcd_sil+1
  1376  0FBA  3097               	movlw	151
  1377  0FBB  00F3               	movwf	??_lcd_sil
  1378  0FBC                     u1797:
  1379  0FBC  0BF3               	decfsz	??_lcd_sil,f
  1380  0FBD  2FBC               	goto	u1797
  1381  0FBE  0BF4               	decfsz	??_lcd_sil+1,f
  1382  0FBF  2FBC               	goto	u1797
  1383  0FC0  2FC1               	nop2
  1384  0FC1                     l63:
  1385  0FC1  0008               	return
  1386  0FC2                     __end_of_lcd_sil:
  1387                           
  1388                           	psect	text5
  1389  0FC2                     __ptext5:	
  1390 ;; *************** function _lcd_gotoxy *****************
  1391 ;; Defined at:
  1392 ;;		line 44 in file "lcd_library.c"
  1393 ;; Parameters:    Size  Location     Type
  1394 ;;  x               1    wreg     unsigned char 
  1395 ;;  y               1    3[COMMON] unsigned char 
  1396 ;; Auto vars:     Size  Location     Type
  1397 ;;  x               1    4[COMMON] unsigned char 
  1398 ;; Return value:  Size  Location     Type
  1399 ;;                  1    wreg      void 
  1400 ;; Registers used:
  1401 ;;		wreg, status,2, status,0, pclath, cstack
  1402 ;; Tracked objects:
  1403 ;;		On entry : 0/0
  1404 ;;		On exit  : 0/0
  1405 ;;		Unchanged: 0/0
  1406 ;; Data sizes:     COMMON   BANK0   BANK1   BANK3   BANK2
  1407 ;;      Params:         1       0       0       0       0
  1408 ;;      Locals:         1       0       0       0       0
  1409 ;;      Temps:          0       0       0       0       0
  1410 ;;      Totals:         2       0       0       0       0
  1411 ;;Total ram usage:        2 bytes
  1412 ;; Hardware stack levels used: 1
  1413 ;; Hardware stack levels required when called: 2
  1414 ;; This function calls:
  1415 ;;		_lcd_komut
  1416 ;; This function is called by:
  1417 ;;		_main
  1418 ;; This function uses a non-reentrant model
  1419 ;;
  1420                           
  1421                           
  1422                           ;psect for function _lcd_gotoxy
  1423  0FC2                     _lcd_gotoxy:
  1424                           
  1425                           ;incstack = 0
  1426                           ; Regs used in _lcd_gotoxy: [wreg+status,2+status,0+pclath+cstack]
  1427                           ;lcd_gotoxy@x stored from wreg
  1428  0FC2  00F4               	movwf	lcd_gotoxy@x
  1429  0FC3                     l1177:
  1430                           
  1431                           ;lcd_library.c: 45:     if(x==1)
  1432  0FC3  0374               	decf	lcd_gotoxy@x,w
  1433  0FC4  1D03               	btfss	3,2
  1434  0FC5  2FC7               	goto	u941
  1435  0FC6  2FC8               	goto	u940
  1436  0FC7                     u941:
  1437  0FC7  2FD2               	goto	l1181
  1438  0FC8                     u940:
  1439  0FC8                     l1179:
  1440                           
  1441                           ;lcd_library.c: 46:         lcd_komut(0x80+((y-1)%16));
  1442  0FC8  0873               	movf	lcd_gotoxy@y,w
  1443  0FC9  3EFF               	addlw	255
  1444  0FCA  390F               	andlw	15
  1445  0FCB  3E80               	addlw	128
  1446  0FCC  120A  118A  2024  120A  158A  	fcall	_lcd_komut
  1447  0FD1  2FDB               	goto	l74
  1448  0FD2                     l1181:
  1449                           
  1450                           ;lcd_library.c: 48:         lcd_komut(0xC0+((y-1)%16));
  1451  0FD2  0873               	movf	lcd_gotoxy@y,w
  1452  0FD3  3EFF               	addlw	255
  1453  0FD4  390F               	andlw	15
  1454  0FD5  3EC0               	addlw	192
  1455  0FD6  120A  118A  2024  120A  158A  	fcall	_lcd_komut
  1456  0FDB                     l74:
  1457  0FDB  0008               	return
  1458  0FDC                     __end_of_lcd_gotoxy:
  1459                           
  1460                           	psect	text6
  1461  0024                     __ptext6:	
  1462 ;; *************** function _lcd_komut *****************
  1463 ;; Defined at:
  1464 ;;		line 10 in file "lcd_library.c"
  1465 ;; Parameters:    Size  Location     Type
  1466 ;;  c               1    wreg     unsigned char 
  1467 ;; Auto vars:     Size  Location     Type
  1468 ;;  c               1    2[COMMON] unsigned char 
  1469 ;; Return value:  Size  Location     Type
  1470 ;;                  1    wreg      void 
  1471 ;; Registers used:
  1472 ;;		wreg, status,2, status,0, pclath, cstack
  1473 ;; Tracked objects:
  1474 ;;		On entry : 0/0
  1475 ;;		On exit  : 0/0
  1476 ;;		Unchanged: 0/0
  1477 ;; Data sizes:     COMMON   BANK0   BANK1   BANK3   BANK2
  1478 ;;      Params:         0       0       0       0       0
  1479 ;;      Locals:         1       0       0       0       0
  1480 ;;      Temps:          1       0       0       0       0
  1481 ;;      Totals:         2       0       0       0       0
  1482 ;;Total ram usage:        2 bytes
  1483 ;; Hardware stack levels used: 1
  1484 ;; Hardware stack levels required when called: 1
  1485 ;; This function calls:
  1486 ;;		_bekle
  1487 ;; This function is called by:
  1488 ;;		_lcd_sil
  1489 ;;		_lcd_gotoxy
  1490 ;;		_lcd_hazirla
  1491 ;; This function uses a non-reentrant model
  1492 ;;
  1493                           
  1494                           
  1495                           ;psect for function _lcd_komut
  1496  0024                     _lcd_komut:
  1497                           
  1498                           ;incstack = 0
  1499                           ; Regs used in _lcd_komut: [wreg+status,2+status,0+pclath+cstack]
  1500                           ;lcd_komut@c stored from wreg
  1501  0024  00F2               	movwf	lcd_komut@c
  1502  0025                     l1117:
  1503                           
  1504                           ;lcd_library.c: 11:     RB1=0;
  1505  0025  1283               	bcf	3,5	;RP0=0, select bank0
  1506  0026  1303               	bcf	3,6	;RP1=0, select bank0
  1507  0027  1086               	bcf	6,1	;volatile
  1508                           
  1509                           ;lcd_library.c: 12:     RB0=0;
  1510  0028  1006               	bcf	6,0	;volatile
  1511                           
  1512                           ;lcd_library.c: 13:     RB2=1;
  1513  0029  1506               	bsf	6,2	;volatile
  1514  002A                     l1119:
  1515                           
  1516                           ;lcd_library.c: 14:     PORTC = (c & 0xF0);
  1517  002A  0872               	movf	lcd_komut@c,w
  1518  002B  39F0               	andlw	240
  1519  002C  0087               	movwf	7	;volatile
  1520  002D                     l1121:
  1521                           
  1522                           ;lcd_library.c: 15:     RB2=0;
  1523  002D  1106               	bcf	6,2	;volatile
  1524  002E                     l1123:
  1525                           
  1526                           ;lcd_library.c: 16:     bekle();
  1527  002E  120A  118A  201F  120A  118A  	fcall	_bekle
  1528  0033                     l1125:
  1529                           
  1530                           ;lcd_library.c: 17:     RB2=1;
  1531  0033  1283               	bcf	3,5	;RP0=0, select bank0
  1532  0034  1303               	bcf	3,6	;RP1=0, select bank0
  1533  0035  1506               	bsf	6,2	;volatile
  1534  0036                     l1127:
  1535                           
  1536                           ;lcd_library.c: 18:     PORTC = ( (c & 0x0F)<<4 );
  1537  0036  0872               	movf	lcd_komut@c,w
  1538  0037  390F               	andlw	15
  1539  0038  00F1               	movwf	??_lcd_komut
  1540  0039  3003               	movlw	3
  1541  003A                     u895:
  1542  003A  1003               	clrc
  1543  003B  0DF1               	rlf	??_lcd_komut,f
  1544  003C  3EFF               	addlw	-1
  1545  003D  1D03               	skipz
  1546  003E  283A               	goto	u895
  1547  003F  1003               	clrc
  1548  0040  0D71               	rlf	??_lcd_komut,w
  1549  0041  0087               	movwf	7	;volatile
  1550  0042                     l1129:
  1551                           
  1552                           ;lcd_library.c: 19:     RB2=0;
  1553  0042  1106               	bcf	6,2	;volatile
  1554  0043                     l1131:
  1555                           
  1556                           ;lcd_library.c: 20:     bekle();
  1557  0043  120A  118A  201F  120A  118A  	fcall	_bekle
  1558  0048                     l57:
  1559  0048  0008               	return
  1560  0049                     __end_of_lcd_komut:
  1561                           
  1562                           	psect	text7
  1563  001F                     __ptext7:	
  1564 ;; *************** function _bekle *****************
  1565 ;; Defined at:
  1566 ;;		line 7 in file "lcd_library.c"
  1567 ;; Parameters:    Size  Location     Type
  1568 ;;		None
  1569 ;; Auto vars:     Size  Location     Type
  1570 ;;		None
  1571 ;; Return value:  Size  Location     Type
  1572 ;;                  1    wreg      void 
  1573 ;; Registers used:
  1574 ;;		wreg
  1575 ;; Tracked objects:
  1576 ;;		On entry : 0/0
  1577 ;;		On exit  : 0/0
  1578 ;;		Unchanged: 0/0
  1579 ;; Data sizes:     COMMON   BANK0   BANK1   BANK3   BANK2
  1580 ;;      Params:         0       0       0       0       0
  1581 ;;      Locals:         0       0       0       0       0
  1582 ;;      Temps:          1       0       0       0       0
  1583 ;;      Totals:         1       0       0       0       0
  1584 ;;Total ram usage:        1 bytes
  1585 ;; Hardware stack levels used: 1
  1586 ;; This function calls:
  1587 ;;		Nothing
  1588 ;; This function is called by:
  1589 ;;		_lcd_komut
  1590 ;;		_veri_yolla
  1591 ;;		_lcd_yaz
  1592 ;; This function uses a non-reentrant model
  1593 ;;
  1594                           
  1595                           
  1596                           ;psect for function _bekle
  1597  001F                     _bekle:
  1598  001F                     l1115:	
  1599                           ;incstack = 0
  1600                           ; Regs used in _bekle: [wreg]
  1601                           
  1602                           
  1603                           ;lcd_library.c: 8:     _delay((unsigned long)((250)*(4000000/4000000.0)));
  1604  001F  3053               	movlw	83
  1605  0020  00F0               	movwf	??_bekle
  1606  0021                     u1807:
  1607  0021  0BF0               	decfsz	??_bekle,f
  1608  0022  2821               	goto	u1807
  1609  0023                     l54:
  1610  0023  0008               	return
  1611  0024                     __end_of_bekle:
  1612                           
  1613                           	psect	text8
  1614  0211                     __ptext8:	
  1615 ;; *************** function ___xxtofl *****************
  1616 ;; Defined at:
  1617 ;;		line 10 in file "C:\Program Files\Microchip\xc8\v2.32\pic\sources\c90\common\xxtofl.c"
  1618 ;; Parameters:    Size  Location     Type
  1619 ;;  sign            1    wreg     unsigned char 
  1620 ;;  val             4    0[COMMON] long 
  1621 ;; Auto vars:     Size  Location     Type
  1622 ;;  sign            1    8[COMMON] unsigned char 
  1623 ;;  arg             4   10[COMMON] unsigned long 
  1624 ;;  exp             1    9[COMMON] unsigned char 
  1625 ;; Return value:  Size  Location     Type
  1626 ;;                  4    0[COMMON] unsigned char 
  1627 ;; Registers used:
  1628 ;;		wreg, status,2, status,0
  1629 ;; Tracked objects:
  1630 ;;		On entry : 0/0
  1631 ;;		On exit  : 0/0
  1632 ;;		Unchanged: 0/0
  1633 ;; Data sizes:     COMMON   BANK0   BANK1   BANK3   BANK2
  1634 ;;      Params:         4       0       0       0       0
  1635 ;;      Locals:         6       0       0       0       0
  1636 ;;      Temps:          4       0       0       0       0
  1637 ;;      Totals:        14       0       0       0       0
  1638 ;;Total ram usage:       14 bytes
  1639 ;; Hardware stack levels used: 1
  1640 ;; This function calls:
  1641 ;;		Nothing
  1642 ;; This function is called by:
  1643 ;;		_main
  1644 ;; This function uses a non-reentrant model
  1645 ;;
  1646                           
  1647                           
  1648                           ;psect for function ___xxtofl
  1649  0211                     ___xxtofl:
  1650                           
  1651                           ;incstack = 0
  1652                           ; Regs used in ___xxtofl: [wreg+status,2+status,0]
  1653                           ;___xxtofl@sign stored from wreg
  1654  0211  00F8               	movwf	___xxtofl@sign
  1655  0212                     l1449:
  1656  0212  0878               	movf	___xxtofl@sign,w
  1657  0213  1903               	btfsc	3,2
  1658  0214  2A16               	goto	u1621
  1659  0215  2A17               	goto	u1620
  1660  0216                     u1621:
  1661  0216  2A2B               	goto	l1455
  1662  0217                     u1620:
  1663  0217                     l1451:
  1664  0217  1FF3               	btfss	___xxtofl@val+3,7
  1665  0218  2A1A               	goto	u1631
  1666  0219  2A1B               	goto	u1630
  1667  021A                     u1631:
  1668  021A  2A2B               	goto	l1455
  1669  021B                     u1630:
  1670  021B                     l1453:
  1671  021B  0970               	comf	___xxtofl@val,w
  1672  021C  00FA               	movwf	___xxtofl@arg
  1673  021D  0971               	comf	___xxtofl@val+1,w
  1674  021E  00FB               	movwf	___xxtofl@arg+1
  1675  021F  0972               	comf	___xxtofl@val+2,w
  1676  0220  00FC               	movwf	___xxtofl@arg+2
  1677  0221  0973               	comf	___xxtofl@val+3,w
  1678  0222  00FD               	movwf	___xxtofl@arg+3
  1679  0223  0AFA               	incf	___xxtofl@arg,f
  1680  0224  1903               	skipnz
  1681  0225  0AFB               	incf	___xxtofl@arg+1,f
  1682  0226  1903               	skipnz
  1683  0227  0AFC               	incf	___xxtofl@arg+2,f
  1684  0228  1903               	skipnz
  1685  0229  0AFD               	incf	___xxtofl@arg+3,f
  1686  022A  2A33               	goto	l596
  1687  022B                     l1455:
  1688  022B  0873               	movf	___xxtofl@val+3,w
  1689  022C  00FD               	movwf	___xxtofl@arg+3
  1690  022D  0872               	movf	___xxtofl@val+2,w
  1691  022E  00FC               	movwf	___xxtofl@arg+2
  1692  022F  0871               	movf	___xxtofl@val+1,w
  1693  0230  00FB               	movwf	___xxtofl@arg+1
  1694  0231  0870               	movf	___xxtofl@val,w
  1695  0232  00FA               	movwf	___xxtofl@arg
  1696  0233                     l596:
  1697  0233  0873               	movf	___xxtofl@val+3,w
  1698  0234  0472               	iorwf	___xxtofl@val+2,w
  1699  0235  0471               	iorwf	___xxtofl@val+1,w
  1700  0236  0470               	iorwf	___xxtofl@val,w
  1701  0237  1D03               	skipz
  1702  0238  2A3A               	goto	u1641
  1703  0239  2A3B               	goto	u1640
  1704  023A                     u1641:
  1705  023A  2A44               	goto	l1461
  1706  023B                     u1640:
  1707  023B                     l1457:
  1708  023B  3000               	movlw	0
  1709  023C  00F3               	movwf	?___xxtofl+3
  1710  023D  3000               	movlw	0
  1711  023E  00F2               	movwf	?___xxtofl+2
  1712  023F  3000               	movlw	0
  1713  0240  00F1               	movwf	?___xxtofl+1
  1714  0241  3000               	movlw	0
  1715  0242  00F0               	movwf	?___xxtofl
  1716  0243  2ACA               	goto	l598
  1717  0244                     l1461:
  1718  0244  3096               	movlw	150
  1719  0245  00F4               	movwf	??___xxtofl
  1720  0246  0874               	movf	??___xxtofl,w
  1721  0247  00F9               	movwf	___xxtofl@exp
  1722  0248  2A56               	goto	l1465
  1723  0249                     l1463:
  1724  0249  3001               	movlw	1
  1725  024A  00F4               	movwf	??___xxtofl
  1726  024B  0874               	movf	??___xxtofl,w
  1727  024C  07F9               	addwf	___xxtofl@exp,f
  1728  024D  3001               	movlw	1
  1729  024E                     u1655:
  1730  024E  1003               	clrc
  1731  024F  0CFD               	rrf	___xxtofl@arg+3,f
  1732  0250  0CFC               	rrf	___xxtofl@arg+2,f
  1733  0251  0CFB               	rrf	___xxtofl@arg+1,f
  1734  0252  0CFA               	rrf	___xxtofl@arg,f
  1735  0253  3EFF               	addlw	-1
  1736  0254  1D03               	skipz
  1737  0255  2A4E               	goto	u1655
  1738  0256                     l1465:
  1739  0256  30FE               	movlw	254
  1740  0257  057D               	andwf	___xxtofl@arg+3,w
  1741  0258  1D03               	btfss	3,2
  1742  0259  2A5B               	goto	u1661
  1743  025A  2A5C               	goto	u1660
  1744  025B                     u1661:
  1745  025B  2A49               	goto	l1463
  1746  025C                     u1660:
  1747  025C  2A78               	goto	l602
  1748  025D                     l1467:
  1749  025D  3001               	movlw	1
  1750  025E  00F4               	movwf	??___xxtofl
  1751  025F  0874               	movf	??___xxtofl,w
  1752  0260  07F9               	addwf	___xxtofl@exp,f
  1753  0261                     l1469:
  1754  0261  3001               	movlw	1
  1755  0262  07FA               	addwf	___xxtofl@arg,f
  1756  0263  3000               	movlw	0
  1757  0264  1803               	skipnc
  1758  0265  3001               	movlw	1
  1759  0266  07FB               	addwf	___xxtofl@arg+1,f
  1760  0267  3000               	movlw	0
  1761  0268  1803               	skipnc
  1762  0269  3001               	movlw	1
  1763  026A  07FC               	addwf	___xxtofl@arg+2,f
  1764  026B  3000               	movlw	0
  1765  026C  1803               	skipnc
  1766  026D  3001               	movlw	1
  1767  026E  07FD               	addwf	___xxtofl@arg+3,f
  1768  026F                     l1471:
  1769  026F  3001               	movlw	1
  1770  0270                     u1675:
  1771  0270  1003               	clrc
  1772  0271  0CFD               	rrf	___xxtofl@arg+3,f
  1773  0272  0CFC               	rrf	___xxtofl@arg+2,f
  1774  0273  0CFB               	rrf	___xxtofl@arg+1,f
  1775  0274  0CFA               	rrf	___xxtofl@arg,f
  1776  0275  3EFF               	addlw	-1
  1777  0276  1D03               	skipz
  1778  0277  2A70               	goto	u1675
  1779  0278                     l602:
  1780  0278  30FF               	movlw	255
  1781  0279  057D               	andwf	___xxtofl@arg+3,w
  1782  027A  1D03               	btfss	3,2
  1783  027B  2A7D               	goto	u1681
  1784  027C  2A7E               	goto	u1680
  1785  027D                     u1681:
  1786  027D  2A5D               	goto	l1467
  1787  027E                     u1680:
  1788  027E  2A8A               	goto	l1475
  1789  027F                     l1473:
  1790  027F  3001               	movlw	1
  1791  0280  02F9               	subwf	___xxtofl@exp,f
  1792  0281  3001               	movlw	1
  1793  0282  00F4               	movwf	??___xxtofl
  1794  0283                     u1695:
  1795  0283  1003               	clrc
  1796  0284  0DFA               	rlf	___xxtofl@arg,f
  1797  0285  0DFB               	rlf	___xxtofl@arg+1,f
  1798  0286  0DFC               	rlf	___xxtofl@arg+2,f
  1799  0287  0DFD               	rlf	___xxtofl@arg+3,f
  1800  0288  0BF4               	decfsz	??___xxtofl,f
  1801  0289  2A83               	goto	u1695
  1802  028A                     l1475:
  1803  028A  1BFC               	btfsc	___xxtofl@arg+2,7
  1804  028B  2A8D               	goto	u1701
  1805  028C  2A8E               	goto	u1700
  1806  028D                     u1701:
  1807  028D  2A94               	goto	l609
  1808  028E                     u1700:
  1809  028E                     l1477:
  1810  028E  3002               	movlw	2
  1811  028F  0279               	subwf	___xxtofl@exp,w
  1812  0290  1803               	skipnc
  1813  0291  2A93               	goto	u1711
  1814  0292  2A94               	goto	u1710
  1815  0293                     u1711:
  1816  0293  2A7F               	goto	l1473
  1817  0294                     u1710:
  1818  0294                     l609:
  1819  0294  1879               	btfsc	___xxtofl@exp,0
  1820  0295  2A97               	goto	u1721
  1821  0296  2A98               	goto	u1720
  1822  0297                     u1721:
  1823  0297  2AA0               	goto	l610
  1824  0298                     u1720:
  1825  0298                     l1479:
  1826  0298  30FF               	movlw	255
  1827  0299  05FA               	andwf	___xxtofl@arg,f
  1828  029A  30FF               	movlw	255
  1829  029B  05FB               	andwf	___xxtofl@arg+1,f
  1830  029C  307F               	movlw	127
  1831  029D  05FC               	andwf	___xxtofl@arg+2,f
  1832  029E  30FF               	movlw	255
  1833  029F  05FD               	andwf	___xxtofl@arg+3,f
  1834  02A0                     l610:
  1835  02A0  1003               	clrc
  1836  02A1  0CF9               	rrf	___xxtofl@exp,f
  1837  02A2                     l1481:
  1838  02A2  0879               	movf	___xxtofl@exp,w
  1839  02A3  00F4               	movwf	??___xxtofl
  1840  02A4  01F5               	clrf	??___xxtofl+1
  1841  02A5  01F6               	clrf	??___xxtofl+2
  1842  02A6  01F7               	clrf	??___xxtofl+3
  1843  02A7  3018               	movlw	24
  1844  02A8                     u1735:
  1845  02A8  1003               	clrc
  1846  02A9  0DF4               	rlf	??___xxtofl,f
  1847  02AA  0DF5               	rlf	??___xxtofl+1,f
  1848  02AB  0DF6               	rlf	??___xxtofl+2,f
  1849  02AC  0DF7               	rlf	??___xxtofl+3,f
  1850  02AD                     u1730:
  1851  02AD  3EFF               	addlw	-1
  1852  02AE  1D03               	skipz
  1853  02AF  2AA8               	goto	u1735
  1854  02B0  0874               	movf	??___xxtofl,w
  1855  02B1  04FA               	iorwf	___xxtofl@arg,f
  1856  02B2  0875               	movf	??___xxtofl+1,w
  1857  02B3  04FB               	iorwf	___xxtofl@arg+1,f
  1858  02B4  0876               	movf	??___xxtofl+2,w
  1859  02B5  04FC               	iorwf	___xxtofl@arg+2,f
  1860  02B6  0877               	movf	??___xxtofl+3,w
  1861  02B7  04FD               	iorwf	___xxtofl@arg+3,f
  1862  02B8                     l1483:
  1863  02B8  0878               	movf	___xxtofl@sign,w
  1864  02B9  1903               	btfsc	3,2
  1865  02BA  2ABC               	goto	u1741
  1866  02BB  2ABD               	goto	u1740
  1867  02BC                     u1741:
  1868  02BC  2AC2               	goto	l1489
  1869  02BD                     u1740:
  1870  02BD                     l1485:
  1871  02BD  1FF3               	btfss	___xxtofl@val+3,7
  1872  02BE  2AC0               	goto	u1751
  1873  02BF  2AC1               	goto	u1750
  1874  02C0                     u1751:
  1875  02C0  2AC2               	goto	l1489
  1876  02C1                     u1750:
  1877  02C1                     l1487:
  1878  02C1  17FD               	bsf	___xxtofl@arg+3,7
  1879  02C2                     l1489:
  1880  02C2  087D               	movf	___xxtofl@arg+3,w
  1881  02C3  00F3               	movwf	?___xxtofl+3
  1882  02C4  087C               	movf	___xxtofl@arg+2,w
  1883  02C5  00F2               	movwf	?___xxtofl+2
  1884  02C6  087B               	movf	___xxtofl@arg+1,w
  1885  02C7  00F1               	movwf	?___xxtofl+1
  1886  02C8  087A               	movf	___xxtofl@arg,w
  1887  02C9  00F0               	movwf	?___xxtofl
  1888  02CA                     l598:
  1889  02CA  0008               	return
  1890  02CB                     __end_of___xxtofl:
  1891                           
  1892                           	psect	text9
  1893  0195                     __ptext9:	
  1894 ;; *************** function ___fltol *****************
  1895 ;; Defined at:
  1896 ;;		line 43 in file "C:\Program Files\Microchip\xc8\v2.32\pic\sources\c90\common\fltol.c"
  1897 ;; Parameters:    Size  Location     Type
  1898 ;;  f1              4   26[BANK0 ] unsigned char 
  1899 ;; Auto vars:     Size  Location     Type
  1900 ;;  exp1            1   36[BANK0 ] unsigned char 
  1901 ;;  sign1           1   35[BANK0 ] unsigned char 
  1902 ;; Return value:  Size  Location     Type
  1903 ;;                  4   26[BANK0 ] long 
  1904 ;; Registers used:
  1905 ;;		wreg, status,2, status,0
  1906 ;; Tracked objects:
  1907 ;;		On entry : 0/0
  1908 ;;		On exit  : 0/0
  1909 ;;		Unchanged: 0/0
  1910 ;; Data sizes:     COMMON   BANK0   BANK1   BANK3   BANK2
  1911 ;;      Params:         0       4       0       0       0
  1912 ;;      Locals:         0       2       0       0       0
  1913 ;;      Temps:          0       5       0       0       0
  1914 ;;      Totals:         0      11       0       0       0
  1915 ;;Total ram usage:       11 bytes
  1916 ;; Hardware stack levels used: 1
  1917 ;; This function calls:
  1918 ;;		Nothing
  1919 ;; This function is called by:
  1920 ;;		_main
  1921 ;; This function uses a non-reentrant model
  1922 ;;
  1923                           
  1924                           
  1925                           ;psect for function ___fltol
  1926  0195                     ___fltol:
  1927  0195                     l1273:	
  1928                           ;incstack = 0
  1929                           ; Regs used in ___fltol: [wreg+status,2+status,0]
  1930                           
  1931  0195  1003               	clrc
  1932  0196  1283               	bcf	3,5	;RP0=0, select bank0
  1933  0197  1303               	bcf	3,6	;RP1=0, select bank0
  1934  0198  0D3C               	rlf	___fltol@f1+2,w
  1935  0199  0D3D               	rlf	___fltol@f1+3,w
  1936  019A  00BE               	movwf	??___fltol
  1937  019B  083E               	movf	??___fltol,w
  1938  019C  00C4               	movwf	___fltol@exp1
  1939  019D  0844               	movf	___fltol@exp1,w
  1940  019E  1D03               	btfss	3,2
  1941  019F  29A1               	goto	u1151
  1942  01A0  29A2               	goto	u1150
  1943  01A1                     u1151:
  1944  01A1  29AB               	goto	l1279
  1945  01A2                     u1150:
  1946  01A2                     l1275:
  1947  01A2  3000               	movlw	0
  1948  01A3  00BD               	movwf	?___fltol+3
  1949  01A4  3000               	movlw	0
  1950  01A5  00BC               	movwf	?___fltol+2
  1951  01A6  3000               	movlw	0
  1952  01A7  00BB               	movwf	?___fltol+1
  1953  01A8  3000               	movlw	0
  1954  01A9  00BA               	movwf	?___fltol
  1955  01AA  2A10               	goto	l349
  1956  01AB                     l1279:
  1957  01AB  083A               	movf	___fltol@f1,w
  1958  01AC  00BE               	movwf	??___fltol
  1959  01AD  083B               	movf	___fltol@f1+1,w
  1960  01AE  00BF               	movwf	??___fltol+1
  1961  01AF  083C               	movf	___fltol@f1+2,w
  1962  01B0  00C0               	movwf	??___fltol+2
  1963  01B1  083D               	movf	___fltol@f1+3,w
  1964  01B2  00C1               	movwf	??___fltol+3
  1965  01B3  301F               	movlw	31
  1966  01B4                     u1165:
  1967  01B4  1003               	clrc
  1968  01B5  0CC1               	rrf	??___fltol+3,f
  1969  01B6  0CC0               	rrf	??___fltol+2,f
  1970  01B7  0CBF               	rrf	??___fltol+1,f
  1971  01B8  0CBE               	rrf	??___fltol,f
  1972  01B9                     u1160:
  1973  01B9  3EFF               	addlw	-1
  1974  01BA  1D03               	skipz
  1975  01BB  29B4               	goto	u1165
  1976  01BC  083E               	movf	??___fltol,w
  1977  01BD  00C2               	movwf	??___fltol+4
  1978  01BE  0842               	movf	??___fltol+4,w
  1979  01BF  00C3               	movwf	___fltol@sign1
  1980  01C0                     l1281:
  1981  01C0  17BC               	bsf	___fltol@f1+2,7
  1982  01C1                     l1283:
  1983  01C1  30FF               	movlw	255
  1984  01C2  05BA               	andwf	___fltol@f1,f
  1985  01C3  30FF               	movlw	255
  1986  01C4  05BB               	andwf	___fltol@f1+1,f
  1987  01C5  30FF               	movlw	255
  1988  01C6  05BC               	andwf	___fltol@f1+2,f
  1989  01C7  3000               	movlw	0
  1990  01C8  05BD               	andwf	___fltol@f1+3,f
  1991  01C9                     l1285:
  1992  01C9  3096               	movlw	150
  1993  01CA  02C4               	subwf	___fltol@exp1,f
  1994  01CB                     l1287:
  1995  01CB  1FC4               	btfss	___fltol@exp1,7
  1996  01CC  29CE               	goto	u1171
  1997  01CD  29CF               	goto	u1170
  1998  01CE                     u1171:
  1999  01CE  29E9               	goto	l1297
  2000  01CF                     u1170:
  2001  01CF                     l1289:
  2002  01CF  0844               	movf	___fltol@exp1,w
  2003  01D0  3A80               	xorlw	128
  2004  01D1  3E97               	addlw	151
  2005  01D2  1803               	skipnc
  2006  01D3  29D5               	goto	u1181
  2007  01D4  29D6               	goto	u1180
  2008  01D5                     u1181:
  2009  01D5  29D7               	goto	l1295
  2010  01D6                     u1180:
  2011  01D6  29A2               	goto	l1275
  2012  01D7                     l1295:
  2013  01D7  3001               	movlw	1
  2014  01D8                     u1195:
  2015  01D8  1003               	clrc
  2016  01D9  0CBD               	rrf	___fltol@f1+3,f
  2017  01DA  0CBC               	rrf	___fltol@f1+2,f
  2018  01DB  0CBB               	rrf	___fltol@f1+1,f
  2019  01DC  0CBA               	rrf	___fltol@f1,f
  2020  01DD  3EFF               	addlw	-1
  2021  01DE  1D03               	skipz
  2022  01DF  29D8               	goto	u1195
  2023  01E0  3001               	movlw	1
  2024  01E1  00BE               	movwf	??___fltol
  2025  01E2  083E               	movf	??___fltol,w
  2026  01E3  07C4               	addwf	___fltol@exp1,f
  2027  01E4  1D03               	btfss	3,2
  2028  01E5  29E7               	goto	u1201
  2029  01E6  29E8               	goto	u1200
  2030  01E7                     u1201:
  2031  01E7  29D7               	goto	l1295
  2032  01E8                     u1200:
  2033  01E8  2A00               	goto	l1305
  2034  01E9                     l1297:
  2035  01E9  3020               	movlw	32
  2036  01EA  0244               	subwf	___fltol@exp1,w
  2037  01EB  1C03               	skipc
  2038  01EC  29EE               	goto	u1211
  2039  01ED  29EF               	goto	u1210
  2040  01EE                     u1211:
  2041  01EE  29FB               	goto	l356
  2042  01EF                     u1210:
  2043  01EF  29A2               	goto	l1275
  2044  01F0                     l1303:
  2045  01F0  3001               	movlw	1
  2046  01F1  00BE               	movwf	??___fltol
  2047  01F2                     u1225:
  2048  01F2  1003               	clrc
  2049  01F3  0DBA               	rlf	___fltol@f1,f
  2050  01F4  0DBB               	rlf	___fltol@f1+1,f
  2051  01F5  0DBC               	rlf	___fltol@f1+2,f
  2052  01F6  0DBD               	rlf	___fltol@f1+3,f
  2053  01F7  0BBE               	decfsz	??___fltol,f
  2054  01F8  29F2               	goto	u1225
  2055  01F9  3001               	movlw	1
  2056  01FA  02C4               	subwf	___fltol@exp1,f
  2057  01FB                     l356:
  2058  01FB  0844               	movf	___fltol@exp1,w
  2059  01FC  1D03               	btfss	3,2
  2060  01FD  29FF               	goto	u1231
  2061  01FE  2A00               	goto	u1230
  2062  01FF                     u1231:
  2063  01FF  29F0               	goto	l1303
  2064  0200                     u1230:
  2065  0200                     l1305:
  2066  0200  0843               	movf	___fltol@sign1,w
  2067  0201  1903               	btfsc	3,2
  2068  0202  2A04               	goto	u1241
  2069  0203  2A05               	goto	u1240
  2070  0204                     u1241:
  2071  0204  2A10               	goto	l359
  2072  0205                     u1240:
  2073  0205                     l1307:
  2074  0205  09BA               	comf	___fltol@f1,f
  2075  0206  09BB               	comf	___fltol@f1+1,f
  2076  0207  09BC               	comf	___fltol@f1+2,f
  2077  0208  09BD               	comf	___fltol@f1+3,f
  2078  0209  0ABA               	incf	___fltol@f1,f
  2079  020A  1903               	skipnz
  2080  020B  0ABB               	incf	___fltol@f1+1,f
  2081  020C  1903               	skipnz
  2082  020D  0ABC               	incf	___fltol@f1+2,f
  2083  020E  1903               	skipnz
  2084  020F  0ABD               	incf	___fltol@f1+3,f
  2085  0210                     l359:
  2086  0210                     l349:
  2087  0210  0008               	return
  2088  0211                     __end_of___fltol:
  2089                           
  2090                           	psect	text10
  2091  0497                     __ptext10:	
  2092 ;; *************** function ___flmul *****************
  2093 ;; Defined at:
  2094 ;;		line 8 in file "C:\Program Files\Microchip\xc8\v2.32\pic\sources\c90\common\sprcmul.c"
  2095 ;; Parameters:    Size  Location     Type
  2096 ;;  b               4    0[BANK0 ] long 
  2097 ;;  a               4    4[BANK0 ] long 
  2098 ;; Auto vars:     Size  Location     Type
  2099 ;;  prod            4   20[BANK0 ] struct .
  2100 ;;  grs             4   14[BANK0 ] unsigned long 
  2101 ;;  temp            2   24[BANK0 ] struct .
  2102 ;;  bexp            1   19[BANK0 ] unsigned char 
  2103 ;;  aexp            1   18[BANK0 ] unsigned char 
  2104 ;;  sign            1   13[BANK0 ] unsigned char 
  2105 ;; Return value:  Size  Location     Type
  2106 ;;                  4    0[BANK0 ] unsigned char 
  2107 ;; Registers used:
  2108 ;;		wreg, status,2, status,0, btemp+1, pclath, cstack
  2109 ;; Tracked objects:
  2110 ;;		On entry : 0/0
  2111 ;;		On exit  : 0/0
  2112 ;;		Unchanged: 0/0
  2113 ;; Data sizes:     COMMON   BANK0   BANK1   BANK3   BANK2
  2114 ;;      Params:         0       8       0       0       0
  2115 ;;      Locals:         0      13       0       0       0
  2116 ;;      Temps:          0       5       0       0       0
  2117 ;;      Totals:         0      26       0       0       0
  2118 ;;Total ram usage:       26 bytes
  2119 ;; Hardware stack levels used: 1
  2120 ;; Hardware stack levels required when called: 1
  2121 ;; This function calls:
  2122 ;;		__Umul8_16
  2123 ;; This function is called by:
  2124 ;;		_main
  2125 ;; This function uses a non-reentrant model
  2126 ;;
  2127                           
  2128                           
  2129                           ;psect for function ___flmul
  2130  0497                     ___flmul:
  2131  0497                     l1309:	
  2132                           ;incstack = 0
  2133                           ; Regs used in ___flmul: [wreg+status,2+status,0+btemp+1+pclath+cstack]
  2134                           
  2135  0497  1283               	bcf	3,5	;RP0=0, select bank0
  2136  0498  1303               	bcf	3,6	;RP1=0, select bank0
  2137  0499  0823               	movf	___flmul@b+3,w
  2138  049A  3980               	andlw	128
  2139  049B  00A8               	movwf	??___flmul
  2140  049C  0828               	movf	??___flmul,w
  2141  049D  00AD               	movwf	___flmul@sign
  2142  049E                     l1311:
  2143  049E  0823               	movf	___flmul@b+3,w
  2144  049F  00A8               	movwf	??___flmul
  2145  04A0  0728               	addwf	??___flmul,w
  2146  04A1  00A9               	movwf	??___flmul+1
  2147  04A2  0829               	movf	??___flmul+1,w
  2148  04A3  00B3               	movwf	___flmul@bexp
  2149  04A4                     l1313:
  2150  04A4  1FA2               	btfss	___flmul@b+2,7
  2151  04A5  2CA7               	goto	u1251
  2152  04A6  2CA8               	goto	u1250
  2153  04A7                     u1251:
  2154  04A7  2CA9               	goto	l1317
  2155  04A8                     u1250:
  2156  04A8                     l1315:
  2157  04A8  1433               	bsf	___flmul@bexp,0
  2158  04A9                     l1317:
  2159  04A9  0833               	movf	___flmul@bexp,w
  2160  04AA  1903               	btfsc	3,2
  2161  04AB  2CAD               	goto	u1261
  2162  04AC  2CAE               	goto	u1260
  2163  04AD                     u1261:
  2164  04AD  2CBD               	goto	l1325
  2165  04AE                     u1260:
  2166  04AE                     l1319:
  2167  04AE  0A33               	incf	___flmul@bexp,w
  2168  04AF  1D03               	btfss	3,2
  2169  04B0  2CB2               	goto	u1271
  2170  04B1  2CB3               	goto	u1270
  2171  04B2                     u1271:
  2172  04B2  2CBB               	goto	l1323
  2173  04B3                     u1270:
  2174  04B3                     l1321:
  2175  04B3  3000               	movlw	0
  2176  04B4  00A3               	movwf	___flmul@b+3
  2177  04B5  3000               	movlw	0
  2178  04B6  00A2               	movwf	___flmul@b+2
  2179  04B7  3000               	movlw	0
  2180  04B8  00A1               	movwf	___flmul@b+1
  2181  04B9  3000               	movlw	0
  2182  04BA  00A0               	movwf	___flmul@b
  2183  04BB                     l1323:
  2184  04BB  17A2               	bsf	___flmul@b+2,7
  2185  04BC  2CC5               	goto	l1327
  2186  04BD                     l1325:
  2187  04BD  3000               	movlw	0
  2188  04BE  00A3               	movwf	___flmul@b+3
  2189  04BF  3000               	movlw	0
  2190  04C0  00A2               	movwf	___flmul@b+2
  2191  04C1  3000               	movlw	0
  2192  04C2  00A1               	movwf	___flmul@b+1
  2193  04C3  3000               	movlw	0
  2194  04C4  00A0               	movwf	___flmul@b
  2195  04C5                     l1327:
  2196  04C5  0827               	movf	___flmul@a+3,w
  2197  04C6  3980               	andlw	128
  2198  04C7  00A8               	movwf	??___flmul
  2199  04C8  0828               	movf	??___flmul,w
  2200  04C9  06AD               	xorwf	___flmul@sign,f
  2201  04CA                     l1329:
  2202  04CA  0827               	movf	___flmul@a+3,w
  2203  04CB  00A8               	movwf	??___flmul
  2204  04CC  0728               	addwf	??___flmul,w
  2205  04CD  00A9               	movwf	??___flmul+1
  2206  04CE  0829               	movf	??___flmul+1,w
  2207  04CF  00B2               	movwf	___flmul@aexp
  2208  04D0                     l1331:
  2209  04D0  1FA6               	btfss	___flmul@a+2,7
  2210  04D1  2CD3               	goto	u1281
  2211  04D2  2CD4               	goto	u1280
  2212  04D3                     u1281:
  2213  04D3  2CD5               	goto	l1335
  2214  04D4                     u1280:
  2215  04D4                     l1333:
  2216  04D4  1432               	bsf	___flmul@aexp,0
  2217  04D5                     l1335:
  2218  04D5  0832               	movf	___flmul@aexp,w
  2219  04D6  1903               	btfsc	3,2
  2220  04D7  2CD9               	goto	u1291
  2221  04D8  2CDA               	goto	u1290
  2222  04D9                     u1291:
  2223  04D9  2CE9               	goto	l1343
  2224  04DA                     u1290:
  2225  04DA                     l1337:
  2226  04DA  0A32               	incf	___flmul@aexp,w
  2227  04DB  1D03               	btfss	3,2
  2228  04DC  2CDE               	goto	u1301
  2229  04DD  2CDF               	goto	u1300
  2230  04DE                     u1301:
  2231  04DE  2CE7               	goto	l1341
  2232  04DF                     u1300:
  2233  04DF                     l1339:
  2234  04DF  3000               	movlw	0
  2235  04E0  00A7               	movwf	___flmul@a+3
  2236  04E1  3000               	movlw	0
  2237  04E2  00A6               	movwf	___flmul@a+2
  2238  04E3  3000               	movlw	0
  2239  04E4  00A5               	movwf	___flmul@a+1
  2240  04E5  3000               	movlw	0
  2241  04E6  00A4               	movwf	___flmul@a
  2242  04E7                     l1341:
  2243  04E7  17A6               	bsf	___flmul@a+2,7
  2244  04E8  2CF1               	goto	l1345
  2245  04E9                     l1343:
  2246  04E9  3000               	movlw	0
  2247  04EA  00A7               	movwf	___flmul@a+3
  2248  04EB  3000               	movlw	0
  2249  04EC  00A6               	movwf	___flmul@a+2
  2250  04ED  3000               	movlw	0
  2251  04EE  00A5               	movwf	___flmul@a+1
  2252  04EF  3000               	movlw	0
  2253  04F0  00A4               	movwf	___flmul@a
  2254  04F1                     l1345:
  2255  04F1  0832               	movf	___flmul@aexp,w
  2256  04F2  1903               	btfsc	3,2
  2257  04F3  2CF5               	goto	u1311
  2258  04F4  2CF6               	goto	u1310
  2259  04F5                     u1311:
  2260  04F5  2CFB               	goto	l1349
  2261  04F6                     u1310:
  2262  04F6                     l1347:
  2263  04F6  0833               	movf	___flmul@bexp,w
  2264  04F7  1D03               	btfss	3,2
  2265  04F8  2CFA               	goto	u1321
  2266  04F9  2CFB               	goto	u1320
  2267  04FA                     u1321:
  2268  04FA  2D04               	goto	l1353
  2269  04FB                     u1320:
  2270  04FB                     l1349:
  2271  04FB  3000               	movlw	0
  2272  04FC  00A3               	movwf	?___flmul+3
  2273  04FD  3000               	movlw	0
  2274  04FE  00A2               	movwf	?___flmul+2
  2275  04FF  3000               	movlw	0
  2276  0500  00A1               	movwf	?___flmul+1
  2277  0501  3000               	movlw	0
  2278  0502  00A0               	movwf	?___flmul
  2279  0503  2FF7               	goto	l552
  2280  0504                     l1353:
  2281  0504  0820               	movf	___flmul@b,w
  2282  0505  00A8               	movwf	??___flmul
  2283  0506  0828               	movf	??___flmul,w
  2284  0507  00F0               	movwf	__Umul8_16@multiplicand
  2285  0508  0826               	movf	___flmul@a+2,w
  2286  0509  120A  118A  206E  120A  118A  	fcall	__Umul8_16
  2287  050E  0871               	movf	?__Umul8_16+1,w
  2288  050F  1283               	bcf	3,5	;RP0=0, select bank0
  2289  0510  1303               	bcf	3,6	;RP1=0, select bank0
  2290  0511  00B9               	movwf	___flmul@temp+1
  2291  0512  0870               	movf	?__Umul8_16,w
  2292  0513  00B8               	movwf	___flmul@temp
  2293  0514                     l1355:
  2294  0514  0838               	movf	___flmul@temp,w
  2295  0515  00A8               	movwf	??___flmul
  2296  0516  01A9               	clrf	??___flmul+1
  2297  0517  01AA               	clrf	??___flmul+2
  2298  0518  01AB               	clrf	??___flmul+3
  2299  0519  082B               	movf	??___flmul+3,w
  2300  051A  00B1               	movwf	___flmul@grs+3
  2301  051B  082A               	movf	??___flmul+2,w
  2302  051C  00B0               	movwf	___flmul@grs+2
  2303  051D  0829               	movf	??___flmul+1,w
  2304  051E  00AF               	movwf	___flmul@grs+1
  2305  051F  0828               	movf	??___flmul,w
  2306  0520  00AE               	movwf	___flmul@grs
  2307  0521                     l1357:
  2308  0521  0839               	movf	___flmul@temp+1,w
  2309  0522  00A8               	movwf	??___flmul
  2310  0523  01A9               	clrf	??___flmul+1
  2311  0524  01AA               	clrf	??___flmul+2
  2312  0525  01AB               	clrf	??___flmul+3
  2313  0526  082B               	movf	??___flmul+3,w
  2314  0527  00B7               	movwf	___flmul@prod+3
  2315  0528  082A               	movf	??___flmul+2,w
  2316  0529  00B6               	movwf	___flmul@prod+2
  2317  052A  0829               	movf	??___flmul+1,w
  2318  052B  00B5               	movwf	___flmul@prod+1
  2319  052C  0828               	movf	??___flmul,w
  2320  052D  00B4               	movwf	___flmul@prod
  2321  052E  0821               	movf	___flmul@b+1,w
  2322  052F  00A8               	movwf	??___flmul
  2323  0530  0828               	movf	??___flmul,w
  2324  0531  00F0               	movwf	__Umul8_16@multiplicand
  2325  0532  0825               	movf	___flmul@a+1,w
  2326  0533  120A  118A  206E  120A  118A  	fcall	__Umul8_16
  2327  0538  0871               	movf	?__Umul8_16+1,w
  2328  0539  1283               	bcf	3,5	;RP0=0, select bank0
  2329  053A  1303               	bcf	3,6	;RP1=0, select bank0
  2330  053B  00B9               	movwf	___flmul@temp+1
  2331  053C  0870               	movf	?__Umul8_16,w
  2332  053D  00B8               	movwf	___flmul@temp
  2333  053E                     l1359:
  2334  053E  0838               	movf	___flmul@temp,w
  2335  053F  00A8               	movwf	??___flmul
  2336  0540  01A9               	clrf	??___flmul+1
  2337  0541  01AA               	clrf	??___flmul+2
  2338  0542  01AB               	clrf	??___flmul+3
  2339  0543  0828               	movf	??___flmul,w
  2340  0544  07AE               	addwf	___flmul@grs,f
  2341  0545  0829               	movf	??___flmul+1,w
  2342  0546  1103               	clrz
  2343  0547  1803               	skipnc
  2344  0548  3E01               	addlw	1
  2345  0549  1903               	skipnz
  2346  054A  2D4C               	goto	u1331
  2347  054B  07AF               	addwf	___flmul@grs+1,f
  2348  054C                     u1331:
  2349  054C  082A               	movf	??___flmul+2,w
  2350  054D  1103               	clrz
  2351  054E  1803               	skipnc
  2352  054F  3E01               	addlw	1
  2353  0550  1903               	skipnz
  2354  0551  2D53               	goto	u1332
  2355  0552  07B0               	addwf	___flmul@grs+2,f
  2356  0553                     u1332:
  2357  0553  082B               	movf	??___flmul+3,w
  2358  0554  1103               	clrz
  2359  0555  1803               	skipnc
  2360  0556  3E01               	addlw	1
  2361  0557  1903               	skipnz
  2362  0558  2D5A               	goto	u1333
  2363  0559  07B1               	addwf	___flmul@grs+3,f
  2364  055A                     u1333:
  2365  055A                     l1361:
  2366  055A  0839               	movf	___flmul@temp+1,w
  2367  055B  00A8               	movwf	??___flmul
  2368  055C  01A9               	clrf	??___flmul+1
  2369  055D  01AA               	clrf	??___flmul+2
  2370  055E  01AB               	clrf	??___flmul+3
  2371  055F  0828               	movf	??___flmul,w
  2372  0560  07B4               	addwf	___flmul@prod,f
  2373  0561  0829               	movf	??___flmul+1,w
  2374  0562  1103               	clrz
  2375  0563  1803               	skipnc
  2376  0564  3E01               	addlw	1
  2377  0565  1903               	skipnz
  2378  0566  2D68               	goto	u1341
  2379  0567  07B5               	addwf	___flmul@prod+1,f
  2380  0568                     u1341:
  2381  0568  082A               	movf	??___flmul+2,w
  2382  0569  1103               	clrz
  2383  056A  1803               	skipnc
  2384  056B  3E01               	addlw	1
  2385  056C  1903               	skipnz
  2386  056D  2D6F               	goto	u1342
  2387  056E  07B6               	addwf	___flmul@prod+2,f
  2388  056F                     u1342:
  2389  056F  082B               	movf	??___flmul+3,w
  2390  0570  1103               	clrz
  2391  0571  1803               	skipnc
  2392  0572  3E01               	addlw	1
  2393  0573  1903               	skipnz
  2394  0574  2D76               	goto	u1343
  2395  0575  07B7               	addwf	___flmul@prod+3,f
  2396  0576                     u1343:
  2397  0576  0822               	movf	___flmul@b+2,w
  2398  0577  00A8               	movwf	??___flmul
  2399  0578  0828               	movf	??___flmul,w
  2400  0579  00F0               	movwf	__Umul8_16@multiplicand
  2401  057A  0824               	movf	___flmul@a,w
  2402  057B  120A  118A  206E  120A  118A  	fcall	__Umul8_16
  2403  0580  0871               	movf	?__Umul8_16+1,w
  2404  0581  1283               	bcf	3,5	;RP0=0, select bank0
  2405  0582  1303               	bcf	3,6	;RP1=0, select bank0
  2406  0583  00B9               	movwf	___flmul@temp+1
  2407  0584  0870               	movf	?__Umul8_16,w
  2408  0585  00B8               	movwf	___flmul@temp
  2409  0586                     l1363:
  2410  0586  0838               	movf	___flmul@temp,w
  2411  0587  00A8               	movwf	??___flmul
  2412  0588  01A9               	clrf	??___flmul+1
  2413  0589  01AA               	clrf	??___flmul+2
  2414  058A  01AB               	clrf	??___flmul+3
  2415  058B  0828               	movf	??___flmul,w
  2416  058C  07AE               	addwf	___flmul@grs,f
  2417  058D  0829               	movf	??___flmul+1,w
  2418  058E  1103               	clrz
  2419  058F  1803               	skipnc
  2420  0590  3E01               	addlw	1
  2421  0591  1903               	skipnz
  2422  0592  2D94               	goto	u1351
  2423  0593  07AF               	addwf	___flmul@grs+1,f
  2424  0594                     u1351:
  2425  0594  082A               	movf	??___flmul+2,w
  2426  0595  1103               	clrz
  2427  0596  1803               	skipnc
  2428  0597  3E01               	addlw	1
  2429  0598  1903               	skipnz
  2430  0599  2D9B               	goto	u1352
  2431  059A  07B0               	addwf	___flmul@grs+2,f
  2432  059B                     u1352:
  2433  059B  082B               	movf	??___flmul+3,w
  2434  059C  1103               	clrz
  2435  059D  1803               	skipnc
  2436  059E  3E01               	addlw	1
  2437  059F  1903               	skipnz
  2438  05A0  2DA2               	goto	u1353
  2439  05A1  07B1               	addwf	___flmul@grs+3,f
  2440  05A2                     u1353:
  2441  05A2                     l1365:
  2442  05A2  0839               	movf	___flmul@temp+1,w
  2443  05A3  00A8               	movwf	??___flmul
  2444  05A4  01A9               	clrf	??___flmul+1
  2445  05A5  01AA               	clrf	??___flmul+2
  2446  05A6  01AB               	clrf	??___flmul+3
  2447  05A7  0828               	movf	??___flmul,w
  2448  05A8  07B4               	addwf	___flmul@prod,f
  2449  05A9  0829               	movf	??___flmul+1,w
  2450  05AA  1103               	clrz
  2451  05AB  1803               	skipnc
  2452  05AC  3E01               	addlw	1
  2453  05AD  1903               	skipnz
  2454  05AE  2DB0               	goto	u1361
  2455  05AF  07B5               	addwf	___flmul@prod+1,f
  2456  05B0                     u1361:
  2457  05B0  082A               	movf	??___flmul+2,w
  2458  05B1  1103               	clrz
  2459  05B2  1803               	skipnc
  2460  05B3  3E01               	addlw	1
  2461  05B4  1903               	skipnz
  2462  05B5  2DB7               	goto	u1362
  2463  05B6  07B6               	addwf	___flmul@prod+2,f
  2464  05B7                     u1362:
  2465  05B7  082B               	movf	??___flmul+3,w
  2466  05B8  1103               	clrz
  2467  05B9  1803               	skipnc
  2468  05BA  3E01               	addlw	1
  2469  05BB  1903               	skipnz
  2470  05BC  2DBE               	goto	u1363
  2471  05BD  07B7               	addwf	___flmul@prod+3,f
  2472  05BE                     u1363:
  2473  05BE                     l1367:
  2474  05BE  3008               	movlw	8
  2475  05BF  00A8               	movwf	??___flmul
  2476  05C0                     u1375:
  2477  05C0  1003               	clrc
  2478  05C1  0DAE               	rlf	___flmul@grs,f
  2479  05C2  0DAF               	rlf	___flmul@grs+1,f
  2480  05C3  0DB0               	rlf	___flmul@grs+2,f
  2481  05C4  0DB1               	rlf	___flmul@grs+3,f
  2482  05C5  0BA8               	decfsz	??___flmul,f
  2483  05C6  2DC0               	goto	u1375
  2484  05C7                     l1369:
  2485  05C7  0821               	movf	___flmul@b+1,w
  2486  05C8  00A8               	movwf	??___flmul
  2487  05C9  0828               	movf	??___flmul,w
  2488  05CA  00F0               	movwf	__Umul8_16@multiplicand
  2489  05CB  0824               	movf	___flmul@a,w
  2490  05CC  120A  118A  206E  120A  118A  	fcall	__Umul8_16
  2491  05D1  0871               	movf	?__Umul8_16+1,w
  2492  05D2  1283               	bcf	3,5	;RP0=0, select bank0
  2493  05D3  1303               	bcf	3,6	;RP1=0, select bank0
  2494  05D4  00B9               	movwf	___flmul@temp+1
  2495  05D5  0870               	movf	?__Umul8_16,w
  2496  05D6  00B8               	movwf	___flmul@temp
  2497  05D7                     l1371:
  2498  05D7  0838               	movf	___flmul@temp,w
  2499  05D8  00A8               	movwf	??___flmul
  2500  05D9  0839               	movf	___flmul@temp+1,w
  2501  05DA  00A9               	movwf	??___flmul+1
  2502  05DB  01AA               	clrf	??___flmul+2
  2503  05DC  01AB               	clrf	??___flmul+3
  2504  05DD  0828               	movf	??___flmul,w
  2505  05DE  07AE               	addwf	___flmul@grs,f
  2506  05DF  0829               	movf	??___flmul+1,w
  2507  05E0  1103               	clrz
  2508  05E1  1803               	skipnc
  2509  05E2  3E01               	addlw	1
  2510  05E3  1903               	skipnz
  2511  05E4  2DE6               	goto	u1381
  2512  05E5  07AF               	addwf	___flmul@grs+1,f
  2513  05E6                     u1381:
  2514  05E6  082A               	movf	??___flmul+2,w
  2515  05E7  1103               	clrz
  2516  05E8  1803               	skipnc
  2517  05E9  3E01               	addlw	1
  2518  05EA  1903               	skipnz
  2519  05EB  2DED               	goto	u1382
  2520  05EC  07B0               	addwf	___flmul@grs+2,f
  2521  05ED                     u1382:
  2522  05ED  082B               	movf	??___flmul+3,w
  2523  05EE  1103               	clrz
  2524  05EF  1803               	skipnc
  2525  05F0  3E01               	addlw	1
  2526  05F1  1903               	skipnz
  2527  05F2  2DF4               	goto	u1383
  2528  05F3  07B1               	addwf	___flmul@grs+3,f
  2529  05F4                     u1383:
  2530  05F4                     l1373:
  2531  05F4  0820               	movf	___flmul@b,w
  2532  05F5  00A8               	movwf	??___flmul
  2533  05F6  0828               	movf	??___flmul,w
  2534  05F7  00F0               	movwf	__Umul8_16@multiplicand
  2535  05F8  0825               	movf	___flmul@a+1,w
  2536  05F9  120A  118A  206E  120A  118A  	fcall	__Umul8_16
  2537  05FE  0871               	movf	?__Umul8_16+1,w
  2538  05FF  1283               	bcf	3,5	;RP0=0, select bank0
  2539  0600  1303               	bcf	3,6	;RP1=0, select bank0
  2540  0601  00B9               	movwf	___flmul@temp+1
  2541  0602  0870               	movf	?__Umul8_16,w
  2542  0603  00B8               	movwf	___flmul@temp
  2543  0604                     l1375:
  2544  0604  0838               	movf	___flmul@temp,w
  2545  0605  00A8               	movwf	??___flmul
  2546  0606  0839               	movf	___flmul@temp+1,w
  2547  0607  00A9               	movwf	??___flmul+1
  2548  0608  01AA               	clrf	??___flmul+2
  2549  0609  01AB               	clrf	??___flmul+3
  2550  060A  0828               	movf	??___flmul,w
  2551  060B  07AE               	addwf	___flmul@grs,f
  2552  060C  0829               	movf	??___flmul+1,w
  2553  060D  1103               	clrz
  2554  060E  1803               	skipnc
  2555  060F  3E01               	addlw	1
  2556  0610  1903               	skipnz
  2557  0611  2E13               	goto	u1391
  2558  0612  07AF               	addwf	___flmul@grs+1,f
  2559  0613                     u1391:
  2560  0613  082A               	movf	??___flmul+2,w
  2561  0614  1103               	clrz
  2562  0615  1803               	skipnc
  2563  0616  3E01               	addlw	1
  2564  0617  1903               	skipnz
  2565  0618  2E1A               	goto	u1392
  2566  0619  07B0               	addwf	___flmul@grs+2,f
  2567  061A                     u1392:
  2568  061A  082B               	movf	??___flmul+3,w
  2569  061B  1103               	clrz
  2570  061C  1803               	skipnc
  2571  061D  3E01               	addlw	1
  2572  061E  1903               	skipnz
  2573  061F  2E21               	goto	u1393
  2574  0620  07B1               	addwf	___flmul@grs+3,f
  2575  0621                     u1393:
  2576  0621                     l1377:
  2577  0621  3008               	movlw	8
  2578  0622  00A8               	movwf	??___flmul
  2579  0623                     u1405:
  2580  0623  1003               	clrc
  2581  0624  0DAE               	rlf	___flmul@grs,f
  2582  0625  0DAF               	rlf	___flmul@grs+1,f
  2583  0626  0DB0               	rlf	___flmul@grs+2,f
  2584  0627  0DB1               	rlf	___flmul@grs+3,f
  2585  0628  0BA8               	decfsz	??___flmul,f
  2586  0629  2E23               	goto	u1405
  2587  062A  0820               	movf	___flmul@b,w
  2588  062B  00A8               	movwf	??___flmul
  2589  062C  0828               	movf	??___flmul,w
  2590  062D  00F0               	movwf	__Umul8_16@multiplicand
  2591  062E  0824               	movf	___flmul@a,w
  2592  062F  120A  118A  206E  120A  118A  	fcall	__Umul8_16
  2593  0634  0871               	movf	?__Umul8_16+1,w
  2594  0635  1283               	bcf	3,5	;RP0=0, select bank0
  2595  0636  1303               	bcf	3,6	;RP1=0, select bank0
  2596  0637  00B9               	movwf	___flmul@temp+1
  2597  0638  0870               	movf	?__Umul8_16,w
  2598  0639  00B8               	movwf	___flmul@temp
  2599  063A                     l1379:
  2600  063A  0838               	movf	___flmul@temp,w
  2601  063B  00A8               	movwf	??___flmul
  2602  063C  0839               	movf	___flmul@temp+1,w
  2603  063D  00A9               	movwf	??___flmul+1
  2604  063E  01AA               	clrf	??___flmul+2
  2605  063F  01AB               	clrf	??___flmul+3
  2606  0640  0828               	movf	??___flmul,w
  2607  0641  07AE               	addwf	___flmul@grs,f
  2608  0642  0829               	movf	??___flmul+1,w
  2609  0643  1103               	clrz
  2610  0644  1803               	skipnc
  2611  0645  3E01               	addlw	1
  2612  0646  1903               	skipnz
  2613  0647  2E49               	goto	u1411
  2614  0648  07AF               	addwf	___flmul@grs+1,f
  2615  0649                     u1411:
  2616  0649  082A               	movf	??___flmul+2,w
  2617  064A  1103               	clrz
  2618  064B  1803               	skipnc
  2619  064C  3E01               	addlw	1
  2620  064D  1903               	skipnz
  2621  064E  2E50               	goto	u1412
  2622  064F  07B0               	addwf	___flmul@grs+2,f
  2623  0650                     u1412:
  2624  0650  082B               	movf	??___flmul+3,w
  2625  0651  1103               	clrz
  2626  0652  1803               	skipnc
  2627  0653  3E01               	addlw	1
  2628  0654  1903               	skipnz
  2629  0655  2E57               	goto	u1413
  2630  0656  07B1               	addwf	___flmul@grs+3,f
  2631  0657                     u1413:
  2632  0657                     l1381:
  2633  0657  0821               	movf	___flmul@b+1,w
  2634  0658  00A8               	movwf	??___flmul
  2635  0659  0828               	movf	??___flmul,w
  2636  065A  00F0               	movwf	__Umul8_16@multiplicand
  2637  065B  0826               	movf	___flmul@a+2,w
  2638  065C  120A  118A  206E  120A  118A  	fcall	__Umul8_16
  2639  0661  0871               	movf	?__Umul8_16+1,w
  2640  0662  1283               	bcf	3,5	;RP0=0, select bank0
  2641  0663  1303               	bcf	3,6	;RP1=0, select bank0
  2642  0664  00B9               	movwf	___flmul@temp+1
  2643  0665  0870               	movf	?__Umul8_16,w
  2644  0666  00B8               	movwf	___flmul@temp
  2645  0667  0838               	movf	___flmul@temp,w
  2646  0668  00A8               	movwf	??___flmul
  2647  0669  0839               	movf	___flmul@temp+1,w
  2648  066A  00A9               	movwf	??___flmul+1
  2649  066B  01AA               	clrf	??___flmul+2
  2650  066C  01AB               	clrf	??___flmul+3
  2651  066D  0828               	movf	??___flmul,w
  2652  066E  07B4               	addwf	___flmul@prod,f
  2653  066F  0829               	movf	??___flmul+1,w
  2654  0670  1103               	clrz
  2655  0671  1803               	skipnc
  2656  0672  3E01               	addlw	1
  2657  0673  1903               	skipnz
  2658  0674  2E76               	goto	u1421
  2659  0675  07B5               	addwf	___flmul@prod+1,f
  2660  0676                     u1421:
  2661  0676  082A               	movf	??___flmul+2,w
  2662  0677  1103               	clrz
  2663  0678  1803               	skipnc
  2664  0679  3E01               	addlw	1
  2665  067A  1903               	skipnz
  2666  067B  2E7D               	goto	u1422
  2667  067C  07B6               	addwf	___flmul@prod+2,f
  2668  067D                     u1422:
  2669  067D  082B               	movf	??___flmul+3,w
  2670  067E  1103               	clrz
  2671  067F  1803               	skipnc
  2672  0680  3E01               	addlw	1
  2673  0681  1903               	skipnz
  2674  0682  2E84               	goto	u1423
  2675  0683  07B7               	addwf	___flmul@prod+3,f
  2676  0684                     u1423:
  2677  0684                     l1383:
  2678  0684  0822               	movf	___flmul@b+2,w
  2679  0685  00A8               	movwf	??___flmul
  2680  0686  0828               	movf	??___flmul,w
  2681  0687  00F0               	movwf	__Umul8_16@multiplicand
  2682  0688  0825               	movf	___flmul@a+1,w
  2683  0689  120A  118A  206E  120A  118A  	fcall	__Umul8_16
  2684  068E  0871               	movf	?__Umul8_16+1,w
  2685  068F  1283               	bcf	3,5	;RP0=0, select bank0
  2686  0690  1303               	bcf	3,6	;RP1=0, select bank0
  2687  0691  00B9               	movwf	___flmul@temp+1
  2688  0692  0870               	movf	?__Umul8_16,w
  2689  0693  00B8               	movwf	___flmul@temp
  2690  0694                     l1385:
  2691  0694  0838               	movf	___flmul@temp,w
  2692  0695  00A8               	movwf	??___flmul
  2693  0696  0839               	movf	___flmul@temp+1,w
  2694  0697  00A9               	movwf	??___flmul+1
  2695  0698  01AA               	clrf	??___flmul+2
  2696  0699  01AB               	clrf	??___flmul+3
  2697  069A  0828               	movf	??___flmul,w
  2698  069B  07B4               	addwf	___flmul@prod,f
  2699  069C  0829               	movf	??___flmul+1,w
  2700  069D  1103               	clrz
  2701  069E  1803               	skipnc
  2702  069F  3E01               	addlw	1
  2703  06A0  1903               	skipnz
  2704  06A1  2EA3               	goto	u1431
  2705  06A2  07B5               	addwf	___flmul@prod+1,f
  2706  06A3                     u1431:
  2707  06A3  082A               	movf	??___flmul+2,w
  2708  06A4  1103               	clrz
  2709  06A5  1803               	skipnc
  2710  06A6  3E01               	addlw	1
  2711  06A7  1903               	skipnz
  2712  06A8  2EAA               	goto	u1432
  2713  06A9  07B6               	addwf	___flmul@prod+2,f
  2714  06AA                     u1432:
  2715  06AA  082B               	movf	??___flmul+3,w
  2716  06AB  1103               	clrz
  2717  06AC  1803               	skipnc
  2718  06AD  3E01               	addlw	1
  2719  06AE  1903               	skipnz
  2720  06AF  2EB1               	goto	u1433
  2721  06B0  07B7               	addwf	___flmul@prod+3,f
  2722  06B1                     u1433:
  2723  06B1  0822               	movf	___flmul@b+2,w
  2724  06B2  00A8               	movwf	??___flmul
  2725  06B3  0828               	movf	??___flmul,w
  2726  06B4  00F0               	movwf	__Umul8_16@multiplicand
  2727  06B5  0826               	movf	___flmul@a+2,w
  2728  06B6  120A  118A  206E  120A  118A  	fcall	__Umul8_16
  2729  06BB  0871               	movf	?__Umul8_16+1,w
  2730  06BC  1283               	bcf	3,5	;RP0=0, select bank0
  2731  06BD  1303               	bcf	3,6	;RP1=0, select bank0
  2732  06BE  00B9               	movwf	___flmul@temp+1
  2733  06BF  0870               	movf	?__Umul8_16,w
  2734  06C0  00B8               	movwf	___flmul@temp
  2735  06C1                     l1387:
  2736  06C1  0838               	movf	___flmul@temp,w
  2737  06C2  00A8               	movwf	??___flmul
  2738  06C3  0839               	movf	___flmul@temp+1,w
  2739  06C4  00A9               	movwf	??___flmul+1
  2740  06C5  01AA               	clrf	??___flmul+2
  2741  06C6  01AB               	clrf	??___flmul+3
  2742  06C7  3008               	movlw	8
  2743  06C8                     u1445:
  2744  06C8  1003               	clrc
  2745  06C9  0DA8               	rlf	??___flmul,f
  2746  06CA  0DA9               	rlf	??___flmul+1,f
  2747  06CB  0DAA               	rlf	??___flmul+2,f
  2748  06CC  0DAB               	rlf	??___flmul+3,f
  2749  06CD                     u1440:
  2750  06CD  3EFF               	addlw	-1
  2751  06CE  1D03               	skipz
  2752  06CF  2EC8               	goto	u1445
  2753  06D0  0828               	movf	??___flmul,w
  2754  06D1  07B4               	addwf	___flmul@prod,f
  2755  06D2  0829               	movf	??___flmul+1,w
  2756  06D3  1103               	clrz
  2757  06D4  1803               	skipnc
  2758  06D5  3E01               	addlw	1
  2759  06D6  1903               	skipnz
  2760  06D7  2ED9               	goto	u1451
  2761  06D8  07B5               	addwf	___flmul@prod+1,f
  2762  06D9                     u1451:
  2763  06D9  082A               	movf	??___flmul+2,w
  2764  06DA  1103               	clrz
  2765  06DB  1803               	skipnc
  2766  06DC  3E01               	addlw	1
  2767  06DD  1903               	skipnz
  2768  06DE  2EE0               	goto	u1452
  2769  06DF  07B6               	addwf	___flmul@prod+2,f
  2770  06E0                     u1452:
  2771  06E0  082B               	movf	??___flmul+3,w
  2772  06E1  1103               	clrz
  2773  06E2  1803               	skipnc
  2774  06E3  3E01               	addlw	1
  2775  06E4  1903               	skipnz
  2776  06E5  2EE7               	goto	u1453
  2777  06E6  07B7               	addwf	___flmul@prod+3,f
  2778  06E7                     u1453:
  2779  06E7                     l1389:
  2780  06E7  082E               	movf	___flmul@grs,w
  2781  06E8  00A8               	movwf	??___flmul
  2782  06E9  082F               	movf	___flmul@grs+1,w
  2783  06EA  00A9               	movwf	??___flmul+1
  2784  06EB  0830               	movf	___flmul@grs+2,w
  2785  06EC  00AA               	movwf	??___flmul+2
  2786  06ED  0831               	movf	___flmul@grs+3,w
  2787  06EE  00AB               	movwf	??___flmul+3
  2788  06EF  3018               	movlw	24
  2789  06F0                     u1465:
  2790  06F0  1003               	clrc
  2791  06F1  0CAB               	rrf	??___flmul+3,f
  2792  06F2  0CAA               	rrf	??___flmul+2,f
  2793  06F3  0CA9               	rrf	??___flmul+1,f
  2794  06F4  0CA8               	rrf	??___flmul,f
  2795  06F5                     u1460:
  2796  06F5  3EFF               	addlw	-1
  2797  06F6  1D03               	skipz
  2798  06F7  2EF0               	goto	u1465
  2799  06F8  0828               	movf	??___flmul,w
  2800  06F9  07B4               	addwf	___flmul@prod,f
  2801  06FA  0829               	movf	??___flmul+1,w
  2802  06FB  1103               	clrz
  2803  06FC  1803               	skipnc
  2804  06FD  3E01               	addlw	1
  2805  06FE  1903               	skipnz
  2806  06FF  2F01               	goto	u1471
  2807  0700  07B5               	addwf	___flmul@prod+1,f
  2808  0701                     u1471:
  2809  0701  082A               	movf	??___flmul+2,w
  2810  0702  1103               	clrz
  2811  0703  1803               	skipnc
  2812  0704  3E01               	addlw	1
  2813  0705  1903               	skipnz
  2814  0706  2F08               	goto	u1472
  2815  0707  07B6               	addwf	___flmul@prod+2,f
  2816  0708                     u1472:
  2817  0708  082B               	movf	??___flmul+3,w
  2818  0709  1103               	clrz
  2819  070A  1803               	skipnc
  2820  070B  3E01               	addlw	1
  2821  070C  1903               	skipnz
  2822  070D  2F0F               	goto	u1473
  2823  070E  07B7               	addwf	___flmul@prod+3,f
  2824  070F                     u1473:
  2825  070F                     l1391:
  2826  070F  3008               	movlw	8
  2827  0710  00A8               	movwf	??___flmul
  2828  0711                     u1485:
  2829  0711  1003               	clrc
  2830  0712  0DAE               	rlf	___flmul@grs,f
  2831  0713  0DAF               	rlf	___flmul@grs+1,f
  2832  0714  0DB0               	rlf	___flmul@grs+2,f
  2833  0715  0DB1               	rlf	___flmul@grs+3,f
  2834  0716  0BA8               	decfsz	??___flmul,f
  2835  0717  2F11               	goto	u1485
  2836  0718                     l1393:
  2837  0718  0833               	movf	___flmul@bexp,w
  2838  0719  0732               	addwf	___flmul@aexp,w
  2839  071A  00A8               	movwf	??___flmul
  2840  071B  01A9               	clrf	??___flmul+1
  2841  071C  0DA9               	rlf	??___flmul+1,f
  2842  071D  0828               	movf	??___flmul,w
  2843  071E  3E82               	addlw	130
  2844  071F  00B8               	movwf	___flmul@temp
  2845  0720  0829               	movf	??___flmul+1,w
  2846  0721  1803               	skipnc
  2847  0722  3E01               	addlw	1
  2848  0723  3EFF               	addlw	255
  2849  0724  00B9               	movwf	___flmul@temp+1
  2850  0725  2F43               	goto	l1405
  2851  0726                     l1395:
  2852  0726  3001               	movlw	1
  2853  0727  00A8               	movwf	??___flmul
  2854  0728                     u1495:
  2855  0728  1003               	clrc
  2856  0729  0DB4               	rlf	___flmul@prod,f
  2857  072A  0DB5               	rlf	___flmul@prod+1,f
  2858  072B  0DB6               	rlf	___flmul@prod+2,f
  2859  072C  0DB7               	rlf	___flmul@prod+3,f
  2860  072D  0BA8               	decfsz	??___flmul,f
  2861  072E  2F28               	goto	u1495
  2862  072F                     l1397:
  2863  072F  1FB1               	btfss	___flmul@grs+3,7
  2864  0730  2F32               	goto	u1501
  2865  0731  2F33               	goto	u1500
  2866  0732                     u1501:
  2867  0732  2F34               	goto	l1401
  2868  0733                     u1500:
  2869  0733                     l1399:
  2870  0733  1434               	bsf	___flmul@prod,0
  2871  0734                     l1401:
  2872  0734  3001               	movlw	1
  2873  0735  00A8               	movwf	??___flmul
  2874  0736                     u1515:
  2875  0736  1003               	clrc
  2876  0737  0DAE               	rlf	___flmul@grs,f
  2877  0738  0DAF               	rlf	___flmul@grs+1,f
  2878  0739  0DB0               	rlf	___flmul@grs+2,f
  2879  073A  0DB1               	rlf	___flmul@grs+3,f
  2880  073B  0BA8               	decfsz	??___flmul,f
  2881  073C  2F36               	goto	u1515
  2882  073D                     l1403:
  2883  073D  30FF               	movlw	255
  2884  073E  07B8               	addwf	___flmul@temp,f
  2885  073F  1803               	skipnc
  2886  0740  0AB9               	incf	___flmul@temp+1,f
  2887  0741  30FF               	movlw	255
  2888  0742  07B9               	addwf	___flmul@temp+1,f
  2889  0743                     l1405:
  2890  0743  1FB6               	btfss	___flmul@prod+2,7
  2891  0744  2F46               	goto	u1521
  2892  0745  2F47               	goto	u1520
  2893  0746                     u1521:
  2894  0746  2F26               	goto	l1395
  2895  0747                     u1520:
  2896  0747                     l1407:
  2897  0747  01B2               	clrf	___flmul@aexp
  2898  0748                     l1409:
  2899  0748  1FB1               	btfss	___flmul@grs+3,7
  2900  0749  2F4B               	goto	u1531
  2901  074A  2F4C               	goto	u1530
  2902  074B                     u1531:
  2903  074B  2F68               	goto	l1417
  2904  074C                     u1530:
  2905  074C                     l1411:
  2906  074C  30FF               	movlw	255
  2907  074D  052E               	andwf	___flmul@grs,w
  2908  074E  00A8               	movwf	??___flmul
  2909  074F  30FF               	movlw	255
  2910  0750  052F               	andwf	___flmul@grs+1,w
  2911  0751  00A9               	movwf	??___flmul+1
  2912  0752  30FF               	movlw	255
  2913  0753  0530               	andwf	___flmul@grs+2,w
  2914  0754  00AA               	movwf	??___flmul+2
  2915  0755  307F               	movlw	127
  2916  0756  0531               	andwf	___flmul@grs+3,w
  2917  0757  00AB               	movwf	??___flmul+3
  2918  0758  082B               	movf	??___flmul+3,w
  2919  0759  042A               	iorwf	??___flmul+2,w
  2920  075A  0429               	iorwf	??___flmul+1,w
  2921  075B  0428               	iorwf	??___flmul,w
  2922  075C  1903               	skipnz
  2923  075D  2F5F               	goto	u1541
  2924  075E  2F60               	goto	u1540
  2925  075F                     u1541:
  2926  075F  2F63               	goto	l558
  2927  0760                     u1540:
  2928  0760                     l1413:
  2929  0760  01B2               	clrf	___flmul@aexp
  2930  0761  0AB2               	incf	___flmul@aexp,f
  2931  0762  2F68               	goto	l1417
  2932  0763                     l558:
  2933  0763  1C34               	btfss	___flmul@prod,0
  2934  0764  2F66               	goto	u1551
  2935  0765  2F67               	goto	u1550
  2936  0766                     u1551:
  2937  0766  2F68               	goto	l1417
  2938  0767                     u1550:
  2939  0767  2F60               	goto	l1413
  2940  0768                     l1417:
  2941  0768  0832               	movf	___flmul@aexp,w
  2942  0769  1903               	btfsc	3,2
  2943  076A  2F6C               	goto	u1561
  2944  076B  2F6D               	goto	u1560
  2945  076C                     u1561:
  2946  076C  2F9E               	goto	l1427
  2947  076D                     u1560:
  2948  076D                     l1419:
  2949  076D  3001               	movlw	1
  2950  076E  07B4               	addwf	___flmul@prod,f
  2951  076F  3000               	movlw	0
  2952  0770  1803               	skipnc
  2953  0771  3001               	movlw	1
  2954  0772  07B5               	addwf	___flmul@prod+1,f
  2955  0773  3000               	movlw	0
  2956  0774  1803               	skipnc
  2957  0775  3001               	movlw	1
  2958  0776  07B6               	addwf	___flmul@prod+2,f
  2959  0777  3000               	movlw	0
  2960  0778  1803               	skipnc
  2961  0779  3001               	movlw	1
  2962  077A  07B7               	addwf	___flmul@prod+3,f
  2963  077B                     l1421:
  2964  077B  1C37               	btfss	___flmul@prod+3,0
  2965  077C  2F7E               	goto	u1571
  2966  077D  2F7F               	goto	u1570
  2967  077E                     u1571:
  2968  077E  2F9E               	goto	l1427
  2969  077F                     u1570:
  2970  077F                     l1423:
  2971  077F  0834               	movf	___flmul@prod,w
  2972  0780  00A8               	movwf	??___flmul
  2973  0781  0835               	movf	___flmul@prod+1,w
  2974  0782  00A9               	movwf	??___flmul+1
  2975  0783  0836               	movf	___flmul@prod+2,w
  2976  0784  00AA               	movwf	??___flmul+2
  2977  0785  0837               	movf	___flmul@prod+3,w
  2978  0786  00AB               	movwf	??___flmul+3
  2979  0787  3001               	movlw	1
  2980  0788  00AC               	movwf	??___flmul+4
  2981  0789                     u1585:
  2982  0789  0D2B               	rlf	??___flmul+3,w
  2983  078A  0CAB               	rrf	??___flmul+3,f
  2984  078B  0CAA               	rrf	??___flmul+2,f
  2985  078C  0CA9               	rrf	??___flmul+1,f
  2986  078D  0CA8               	rrf	??___flmul,f
  2987  078E                     u1580:
  2988  078E  0BAC               	decfsz	??___flmul+4,f
  2989  078F  2F89               	goto	u1585
  2990  0790  082B               	movf	??___flmul+3,w
  2991  0791  00B7               	movwf	___flmul@prod+3
  2992  0792  082A               	movf	??___flmul+2,w
  2993  0793  00B6               	movwf	___flmul@prod+2
  2994  0794  0829               	movf	??___flmul+1,w
  2995  0795  00B5               	movwf	___flmul@prod+1
  2996  0796  0828               	movf	??___flmul,w
  2997  0797  00B4               	movwf	___flmul@prod
  2998  0798                     l1425:
  2999  0798  3001               	movlw	1
  3000  0799  07B8               	addwf	___flmul@temp,f
  3001  079A  1803               	skipnc
  3002  079B  0AB9               	incf	___flmul@temp+1,f
  3003  079C  3000               	movlw	0
  3004  079D  07B9               	addwf	___flmul@temp+1,f
  3005  079E                     l1427:
  3006  079E  0839               	movf	___flmul@temp+1,w
  3007  079F  3A80               	xorlw	128
  3008  07A0  00FF               	movwf	btemp+1
  3009  07A1  3080               	movlw	128
  3010  07A2  027F               	subwf	btemp+1,w
  3011  07A3  1D03               	skipz
  3012  07A4  2FA7               	goto	u1595
  3013  07A5  30FF               	movlw	255
  3014  07A6  0238               	subwf	___flmul@temp,w
  3015  07A7                     u1595:
  3016  07A7  1C03               	skipc
  3017  07A8  2FAA               	goto	u1591
  3018  07A9  2FAB               	goto	u1590
  3019  07AA                     u1591:
  3020  07AA  2FB6               	goto	l1431
  3021  07AB                     u1590:
  3022  07AB                     l1429:
  3023  07AB  307F               	movlw	127
  3024  07AC  1283               	bcf	3,5	;RP0=0, select bank0
  3025  07AD  1303               	bcf	3,6	;RP1=0, select bank0
  3026  07AE  00B7               	movwf	___flmul@prod+3
  3027  07AF  3080               	movlw	128
  3028  07B0  00B6               	movwf	___flmul@prod+2
  3029  07B1  3000               	movlw	0
  3030  07B2  00B5               	movwf	___flmul@prod+1
  3031  07B3  3000               	movlw	0
  3032  07B4  00B4               	movwf	___flmul@prod
  3033  07B5  2FEB               	goto	l564
  3034  07B6                     l1431:
  3035  07B6  1283               	bcf	3,5	;RP0=0, select bank0
  3036  07B7  1303               	bcf	3,6	;RP1=0, select bank0
  3037  07B8  0839               	movf	___flmul@temp+1,w
  3038  07B9  3A80               	xorlw	128
  3039  07BA  00FF               	movwf	btemp+1
  3040  07BB  3080               	movlw	128
  3041  07BC  027F               	subwf	btemp+1,w
  3042  07BD  1D03               	skipz
  3043  07BE  2FC1               	goto	u1605
  3044  07BF  3001               	movlw	1
  3045  07C0  0238               	subwf	___flmul@temp,w
  3046  07C1                     u1605:
  3047  07C1  1803               	skipnc
  3048  07C2  2FC4               	goto	u1601
  3049  07C3  2FC5               	goto	u1600
  3050  07C4                     u1601:
  3051  07C4  2FD1               	goto	l1437
  3052  07C5                     u1600:
  3053  07C5                     l1433:
  3054  07C5  3000               	movlw	0
  3055  07C6  1283               	bcf	3,5	;RP0=0, select bank0
  3056  07C7  1303               	bcf	3,6	;RP1=0, select bank0
  3057  07C8  00B7               	movwf	___flmul@prod+3
  3058  07C9  3000               	movlw	0
  3059  07CA  00B6               	movwf	___flmul@prod+2
  3060  07CB  3000               	movlw	0
  3061  07CC  00B5               	movwf	___flmul@prod+1
  3062  07CD  3000               	movlw	0
  3063  07CE  00B4               	movwf	___flmul@prod
  3064  07CF                     l1435:
  3065  07CF  01AD               	clrf	___flmul@sign
  3066  07D0  2FEB               	goto	l564
  3067  07D1                     l1437:
  3068  07D1  1283               	bcf	3,5	;RP0=0, select bank0
  3069  07D2  1303               	bcf	3,6	;RP1=0, select bank0
  3070  07D3  0838               	movf	___flmul@temp,w
  3071  07D4  00A8               	movwf	??___flmul
  3072  07D5  0828               	movf	??___flmul,w
  3073  07D6  00B3               	movwf	___flmul@bexp
  3074  07D7  30FF               	movlw	255
  3075  07D8  05B4               	andwf	___flmul@prod,f
  3076  07D9  30FF               	movlw	255
  3077  07DA  05B5               	andwf	___flmul@prod+1,f
  3078  07DB  307F               	movlw	127
  3079  07DC  05B6               	andwf	___flmul@prod+2,f
  3080  07DD  3000               	movlw	0
  3081  07DE  05B7               	andwf	___flmul@prod+3,f
  3082  07DF                     l1439:
  3083  07DF  1C33               	btfss	___flmul@bexp,0
  3084  07E0  2FE2               	goto	u1611
  3085  07E1  2FE3               	goto	u1610
  3086  07E2                     u1611:
  3087  07E2  2FE4               	goto	l1443
  3088  07E3                     u1610:
  3089  07E3                     l1441:
  3090  07E3  17B6               	bsf	___flmul@prod+2,7
  3091  07E4                     l1443:
  3092  07E4  0833               	movf	___flmul@bexp,w
  3093  07E5  00A8               	movwf	??___flmul
  3094  07E6  1003               	clrc
  3095  07E7  0C28               	rrf	??___flmul,w
  3096  07E8  00A9               	movwf	??___flmul+1
  3097  07E9  0829               	movf	??___flmul+1,w
  3098  07EA  00B7               	movwf	___flmul@prod+3
  3099  07EB                     l564:
  3100  07EB  082D               	movf	___flmul@sign,w
  3101  07EC  00A8               	movwf	??___flmul
  3102  07ED  0828               	movf	??___flmul,w
  3103  07EE  04B7               	iorwf	___flmul@prod+3,f
  3104  07EF                     l1445:
  3105  07EF  0837               	movf	___flmul@prod+3,w
  3106  07F0  00A3               	movwf	?___flmul+3
  3107  07F1  0836               	movf	___flmul@prod+2,w
  3108  07F2  00A2               	movwf	?___flmul+2
  3109  07F3  0835               	movf	___flmul@prod+1,w
  3110  07F4  00A1               	movwf	?___flmul+1
  3111  07F5  0834               	movf	___flmul@prod,w
  3112  07F6  00A0               	movwf	?___flmul
  3113  07F7                     l552:
  3114  07F7  0008               	return
  3115  07F8                     __end_of___flmul:
  3116                           
  3117                           	psect	text11
  3118  006E                     __ptext11:	
  3119 ;; *************** function __Umul8_16 *****************
  3120 ;; Defined at:
  3121 ;;		line 4 in file "C:\Program Files\Microchip\xc8\v2.32\pic\sources\c90\common\Umul8_16.c"
  3122 ;; Parameters:    Size  Location     Type
  3123 ;;  multiplier      1    wreg     unsigned char 
  3124 ;;  multiplicand    1    0[COMMON] unsigned char 
  3125 ;; Auto vars:     Size  Location     Type
  3126 ;;  multiplier      1    8[COMMON] unsigned char 
  3127 ;;  word_mpld       2    6[COMMON] unsigned int 
  3128 ;;  product         2    4[COMMON] unsigned int 
  3129 ;; Return value:  Size  Location     Type
  3130 ;;                  2    0[COMMON] unsigned int 
  3131 ;; Registers used:
  3132 ;;		wreg, status,2, status,0
  3133 ;; Tracked objects:
  3134 ;;		On entry : 0/0
  3135 ;;		On exit  : 0/0
  3136 ;;		Unchanged: 0/0
  3137 ;; Data sizes:     COMMON   BANK0   BANK1   BANK3   BANK2
  3138 ;;      Params:         2       0       0       0       0
  3139 ;;      Locals:         5       0       0       0       0
  3140 ;;      Temps:          2       0       0       0       0
  3141 ;;      Totals:         9       0       0       0       0
  3142 ;;Total ram usage:        9 bytes
  3143 ;; Hardware stack levels used: 1
  3144 ;; This function calls:
  3145 ;;		Nothing
  3146 ;; This function is called by:
  3147 ;;		___flmul
  3148 ;; This function uses a non-reentrant model
  3149 ;;
  3150                           
  3151                           
  3152                           ;psect for function __Umul8_16
  3153  006E                     __Umul8_16:
  3154                           
  3155                           ;incstack = 0
  3156                           ; Regs used in __Umul8_16: [wreg+status,2+status,0]
  3157                           ;__Umul8_16@multiplier stored from wreg
  3158  006E  00F8               	movwf	__Umul8_16@multiplier
  3159  006F                     l1153:
  3160  006F  01F4               	clrf	__Umul8_16@product
  3161  0070  01F5               	clrf	__Umul8_16@product+1
  3162  0071                     l1155:
  3163  0071  0870               	movf	__Umul8_16@multiplicand,w
  3164  0072  00F2               	movwf	??__Umul8_16
  3165  0073  01F3               	clrf	??__Umul8_16+1
  3166  0074  0872               	movf	??__Umul8_16,w
  3167  0075  00F6               	movwf	__Umul8_16@word_mpld
  3168  0076  0873               	movf	??__Umul8_16+1,w
  3169  0077  00F7               	movwf	__Umul8_16@word_mpld+1
  3170  0078                     l1157:
  3171  0078  1C78               	btfss	__Umul8_16@multiplier,0
  3172  0079  287B               	goto	u911
  3173  007A  287C               	goto	u910
  3174  007B                     u911:
  3175  007B  2882               	goto	l571
  3176  007C                     u910:
  3177  007C                     l1159:
  3178  007C  0876               	movf	__Umul8_16@word_mpld,w
  3179  007D  07F4               	addwf	__Umul8_16@product,f
  3180  007E  1803               	skipnc
  3181  007F  0AF5               	incf	__Umul8_16@product+1,f
  3182  0080  0877               	movf	__Umul8_16@word_mpld+1,w
  3183  0081  07F5               	addwf	__Umul8_16@product+1,f
  3184  0082                     l571:
  3185  0082  3001               	movlw	1
  3186  0083                     u925:
  3187  0083  1003               	clrc
  3188  0084  0DF6               	rlf	__Umul8_16@word_mpld,f
  3189  0085  0DF7               	rlf	__Umul8_16@word_mpld+1,f
  3190  0086  3EFF               	addlw	-1
  3191  0087  1D03               	skipz
  3192  0088  2883               	goto	u925
  3193  0089  1003               	clrc
  3194  008A  0CF8               	rrf	__Umul8_16@multiplier,f
  3195  008B                     l1161:
  3196  008B  0878               	movf	__Umul8_16@multiplier,w
  3197  008C  1D03               	btfss	3,2
  3198  008D  288F               	goto	u931
  3199  008E  2890               	goto	u930
  3200  008F                     u931:
  3201  008F  2878               	goto	l1157
  3202  0090                     u930:
  3203  0090                     l1163:
  3204  0090  0875               	movf	__Umul8_16@product+1,w
  3205  0091  00F1               	movwf	?__Umul8_16+1
  3206  0092  0874               	movf	__Umul8_16@product,w
  3207  0093  00F0               	movwf	?__Umul8_16
  3208  0094                     l573:
  3209  0094  0008               	return
  3210  0095                     __end_of__Umul8_16:
  3211                           
  3212                           	psect	text12
  3213  00D3                     __ptext12:	
  3214 ;; *************** function ___awmod *****************
  3215 ;; Defined at:
  3216 ;;		line 5 in file "C:\Program Files\Microchip\xc8\v2.32\pic\sources\c90\common\awmod.c"
  3217 ;; Parameters:    Size  Location     Type
  3218 ;;  divisor         2    0[COMMON] int 
  3219 ;;  dividend        2    2[COMMON] int 
  3220 ;; Auto vars:     Size  Location     Type
  3221 ;;  sign            1    6[COMMON] unsigned char 
  3222 ;;  counter         1    5[COMMON] unsigned char 
  3223 ;; Return value:  Size  Location     Type
  3224 ;;                  2    0[COMMON] int 
  3225 ;; Registers used:
  3226 ;;		wreg, status,2, status,0
  3227 ;; Tracked objects:
  3228 ;;		On entry : 0/0
  3229 ;;		On exit  : 0/0
  3230 ;;		Unchanged: 0/0
  3231 ;; Data sizes:     COMMON   BANK0   BANK1   BANK3   BANK2
  3232 ;;      Params:         4       0       0       0       0
  3233 ;;      Locals:         2       0       0       0       0
  3234 ;;      Temps:          1       0       0       0       0
  3235 ;;      Totals:         7       0       0       0       0
  3236 ;;Total ram usage:        7 bytes
  3237 ;; Hardware stack levels used: 1
  3238 ;; This function calls:
  3239 ;;		Nothing
  3240 ;; This function is called by:
  3241 ;;		_main
  3242 ;; This function uses a non-reentrant model
  3243 ;;
  3244                           
  3245                           
  3246                           ;psect for function ___awmod
  3247  00D3                     ___awmod:
  3248  00D3                     l1235:	
  3249                           ;incstack = 0
  3250                           ; Regs used in ___awmod: [wreg+status,2+status,0]
  3251                           
  3252  00D3  01F6               	clrf	___awmod@sign
  3253  00D4                     l1237:
  3254  00D4  1FF3               	btfss	___awmod@dividend+1,7
  3255  00D5  28D7               	goto	u1061
  3256  00D6  28D8               	goto	u1060
  3257  00D7                     u1061:
  3258  00D7  28DF               	goto	l1243
  3259  00D8                     u1060:
  3260  00D8                     l1239:
  3261  00D8  09F2               	comf	___awmod@dividend,f
  3262  00D9  09F3               	comf	___awmod@dividend+1,f
  3263  00DA  0AF2               	incf	___awmod@dividend,f
  3264  00DB  1903               	skipnz
  3265  00DC  0AF3               	incf	___awmod@dividend+1,f
  3266  00DD                     l1241:
  3267  00DD  01F6               	clrf	___awmod@sign
  3268  00DE  0AF6               	incf	___awmod@sign,f
  3269  00DF                     l1243:
  3270  00DF  1FF1               	btfss	___awmod@divisor+1,7
  3271  00E0  28E2               	goto	u1071
  3272  00E1  28E3               	goto	u1070
  3273  00E2                     u1071:
  3274  00E2  28E8               	goto	l1247
  3275  00E3                     u1070:
  3276  00E3                     l1245:
  3277  00E3  09F0               	comf	___awmod@divisor,f
  3278  00E4  09F1               	comf	___awmod@divisor+1,f
  3279  00E5  0AF0               	incf	___awmod@divisor,f
  3280  00E6  1903               	skipnz
  3281  00E7  0AF1               	incf	___awmod@divisor+1,f
  3282  00E8                     l1247:
  3283  00E8  0870               	movf	___awmod@divisor,w
  3284  00E9  0471               	iorwf	___awmod@divisor+1,w
  3285  00EA  1903               	btfsc	3,2
  3286  00EB  28ED               	goto	u1081
  3287  00EC  28EE               	goto	u1080
  3288  00ED                     u1081:
  3289  00ED  291D               	goto	l1265
  3290  00EE                     u1080:
  3291  00EE                     l1249:
  3292  00EE  01F5               	clrf	___awmod@counter
  3293  00EF  0AF5               	incf	___awmod@counter,f
  3294  00F0  28FC               	goto	l1255
  3295  00F1                     l1251:
  3296  00F1  3001               	movlw	1
  3297  00F2                     u1095:
  3298  00F2  1003               	clrc
  3299  00F3  0DF0               	rlf	___awmod@divisor,f
  3300  00F4  0DF1               	rlf	___awmod@divisor+1,f
  3301  00F5  3EFF               	addlw	-1
  3302  00F6  1D03               	skipz
  3303  00F7  28F2               	goto	u1095
  3304  00F8                     l1253:
  3305  00F8  3001               	movlw	1
  3306  00F9  00F4               	movwf	??___awmod
  3307  00FA  0874               	movf	??___awmod,w
  3308  00FB  07F5               	addwf	___awmod@counter,f
  3309  00FC                     l1255:
  3310  00FC  1FF1               	btfss	___awmod@divisor+1,7
  3311  00FD  28FF               	goto	u1101
  3312  00FE  2900               	goto	u1100
  3313  00FF                     u1101:
  3314  00FF  28F1               	goto	l1251
  3315  0100                     u1100:
  3316  0100                     l1257:
  3317  0100  0871               	movf	___awmod@divisor+1,w
  3318  0101  0273               	subwf	___awmod@dividend+1,w
  3319  0102  1D03               	skipz
  3320  0103  2906               	goto	u1115
  3321  0104  0870               	movf	___awmod@divisor,w
  3322  0105  0272               	subwf	___awmod@dividend,w
  3323  0106                     u1115:
  3324  0106  1C03               	skipc
  3325  0107  2909               	goto	u1111
  3326  0108  290A               	goto	u1110
  3327  0109                     u1111:
  3328  0109  2910               	goto	l1261
  3329  010A                     u1110:
  3330  010A                     l1259:
  3331  010A  0870               	movf	___awmod@divisor,w
  3332  010B  02F2               	subwf	___awmod@dividend,f
  3333  010C  0871               	movf	___awmod@divisor+1,w
  3334  010D  1C03               	skipc
  3335  010E  03F3               	decf	___awmod@dividend+1,f
  3336  010F  02F3               	subwf	___awmod@dividend+1,f
  3337  0110                     l1261:
  3338  0110  3001               	movlw	1
  3339  0111                     u1125:
  3340  0111  1003               	clrc
  3341  0112  0CF1               	rrf	___awmod@divisor+1,f
  3342  0113  0CF0               	rrf	___awmod@divisor,f
  3343  0114  3EFF               	addlw	-1
  3344  0115  1D03               	skipz
  3345  0116  2911               	goto	u1125
  3346  0117                     l1263:
  3347  0117  3001               	movlw	1
  3348  0118  02F5               	subwf	___awmod@counter,f
  3349  0119  1D03               	btfss	3,2
  3350  011A  291C               	goto	u1131
  3351  011B  291D               	goto	u1130
  3352  011C                     u1131:
  3353  011C  2900               	goto	l1257
  3354  011D                     u1130:
  3355  011D                     l1265:
  3356  011D  0876               	movf	___awmod@sign,w
  3357  011E  1903               	btfsc	3,2
  3358  011F  2921               	goto	u1141
  3359  0120  2922               	goto	u1140
  3360  0121                     u1141:
  3361  0121  2927               	goto	l1269
  3362  0122                     u1140:
  3363  0122                     l1267:
  3364  0122  09F2               	comf	___awmod@dividend,f
  3365  0123  09F3               	comf	___awmod@dividend+1,f
  3366  0124  0AF2               	incf	___awmod@dividend,f
  3367  0125  1903               	skipnz
  3368  0126  0AF3               	incf	___awmod@dividend+1,f
  3369  0127                     l1269:
  3370  0127  0873               	movf	___awmod@dividend+1,w
  3371  0128  00F1               	movwf	?___awmod+1
  3372  0129  0872               	movf	___awmod@dividend,w
  3373  012A  00F0               	movwf	?___awmod
  3374  012B                     l329:
  3375  012B  0008               	return
  3376  012C                     __end_of___awmod:
  3377                           
  3378                           	psect	text13
  3379  012C                     __ptext13:	
  3380 ;; *************** function ___awdiv *****************
  3381 ;; Defined at:
  3382 ;;		line 5 in file "C:\Program Files\Microchip\xc8\v2.32\pic\sources\c90\common\awdiv.c"
  3383 ;; Parameters:    Size  Location     Type
  3384 ;;  divisor         2    7[COMMON] int 
  3385 ;;  dividend        2    9[COMMON] int 
  3386 ;; Auto vars:     Size  Location     Type
  3387 ;;  quotient        2    2[BANK0 ] int 
  3388 ;;  sign            1    1[BANK0 ] unsigned char 
  3389 ;;  counter         1    0[BANK0 ] unsigned char 
  3390 ;; Return value:  Size  Location     Type
  3391 ;;                  2    7[COMMON] int 
  3392 ;; Registers used:
  3393 ;;		wreg, status,2, status,0
  3394 ;; Tracked objects:
  3395 ;;		On entry : 0/0
  3396 ;;		On exit  : 0/0
  3397 ;;		Unchanged: 0/0
  3398 ;; Data sizes:     COMMON   BANK0   BANK1   BANK3   BANK2
  3399 ;;      Params:         4       0       0       0       0
  3400 ;;      Locals:         0       4       0       0       0
  3401 ;;      Temps:          1       0       0       0       0
  3402 ;;      Totals:         5       4       0       0       0
  3403 ;;Total ram usage:        9 bytes
  3404 ;; Hardware stack levels used: 1
  3405 ;; This function calls:
  3406 ;;		Nothing
  3407 ;; This function is called by:
  3408 ;;		_main
  3409 ;; This function uses a non-reentrant model
  3410 ;;
  3411                           
  3412                           
  3413                           ;psect for function ___awdiv
  3414  012C                     ___awdiv:
  3415  012C                     l1191:	
  3416                           ;incstack = 0
  3417                           ; Regs used in ___awdiv: [wreg+status,2+status,0]
  3418                           
  3419  012C  1283               	bcf	3,5	;RP0=0, select bank0
  3420  012D  1303               	bcf	3,6	;RP1=0, select bank0
  3421  012E  01A1               	clrf	___awdiv@sign
  3422  012F                     l1193:
  3423  012F  1FF8               	btfss	___awdiv@divisor+1,7
  3424  0130  2932               	goto	u961
  3425  0131  2933               	goto	u960
  3426  0132                     u961:
  3427  0132  293A               	goto	l1199
  3428  0133                     u960:
  3429  0133                     l1195:
  3430  0133  09F7               	comf	___awdiv@divisor,f
  3431  0134  09F8               	comf	___awdiv@divisor+1,f
  3432  0135  0AF7               	incf	___awdiv@divisor,f
  3433  0136  1903               	skipnz
  3434  0137  0AF8               	incf	___awdiv@divisor+1,f
  3435  0138                     l1197:
  3436  0138  01A1               	clrf	___awdiv@sign
  3437  0139  0AA1               	incf	___awdiv@sign,f
  3438  013A                     l1199:
  3439  013A  1FFA               	btfss	___awdiv@dividend+1,7
  3440  013B  293D               	goto	u971
  3441  013C  293E               	goto	u970
  3442  013D                     u971:
  3443  013D  2947               	goto	l1205
  3444  013E                     u970:
  3445  013E                     l1201:
  3446  013E  09F9               	comf	___awdiv@dividend,f
  3447  013F  09FA               	comf	___awdiv@dividend+1,f
  3448  0140  0AF9               	incf	___awdiv@dividend,f
  3449  0141  1903               	skipnz
  3450  0142  0AFA               	incf	___awdiv@dividend+1,f
  3451  0143                     l1203:
  3452  0143  3001               	movlw	1
  3453  0144  00FB               	movwf	??___awdiv
  3454  0145  087B               	movf	??___awdiv,w
  3455  0146  06A1               	xorwf	___awdiv@sign,f
  3456  0147                     l1205:
  3457  0147  01A2               	clrf	___awdiv@quotient
  3458  0148  01A3               	clrf	___awdiv@quotient+1
  3459  0149                     l1207:
  3460  0149  0877               	movf	___awdiv@divisor,w
  3461  014A  0478               	iorwf	___awdiv@divisor+1,w
  3462  014B  1903               	btfsc	3,2
  3463  014C  294E               	goto	u981
  3464  014D  294F               	goto	u980
  3465  014E                     u981:
  3466  014E  2986               	goto	l1227
  3467  014F                     u980:
  3468  014F                     l1209:
  3469  014F  01A0               	clrf	___awdiv@counter
  3470  0150  0AA0               	incf	___awdiv@counter,f
  3471  0151  295D               	goto	l1215
  3472  0152                     l1211:
  3473  0152  3001               	movlw	1
  3474  0153                     u995:
  3475  0153  1003               	clrc
  3476  0154  0DF7               	rlf	___awdiv@divisor,f
  3477  0155  0DF8               	rlf	___awdiv@divisor+1,f
  3478  0156  3EFF               	addlw	-1
  3479  0157  1D03               	skipz
  3480  0158  2953               	goto	u995
  3481  0159                     l1213:
  3482  0159  3001               	movlw	1
  3483  015A  00FB               	movwf	??___awdiv
  3484  015B  087B               	movf	??___awdiv,w
  3485  015C  07A0               	addwf	___awdiv@counter,f
  3486  015D                     l1215:
  3487  015D  1FF8               	btfss	___awdiv@divisor+1,7
  3488  015E  2960               	goto	u1001
  3489  015F  2961               	goto	u1000
  3490  0160                     u1001:
  3491  0160  2952               	goto	l1211
  3492  0161                     u1000:
  3493  0161                     l1217:
  3494  0161  3001               	movlw	1
  3495  0162                     u1015:
  3496  0162  1003               	clrc
  3497  0163  0DA2               	rlf	___awdiv@quotient,f
  3498  0164  0DA3               	rlf	___awdiv@quotient+1,f
  3499  0165  3EFF               	addlw	-1
  3500  0166  1D03               	skipz
  3501  0167  2962               	goto	u1015
  3502  0168  0878               	movf	___awdiv@divisor+1,w
  3503  0169  027A               	subwf	___awdiv@dividend+1,w
  3504  016A  1D03               	skipz
  3505  016B  296E               	goto	u1025
  3506  016C  0877               	movf	___awdiv@divisor,w
  3507  016D  0279               	subwf	___awdiv@dividend,w
  3508  016E                     u1025:
  3509  016E  1C03               	skipc
  3510  016F  2971               	goto	u1021
  3511  0170  2972               	goto	u1020
  3512  0171                     u1021:
  3513  0171  2979               	goto	l1223
  3514  0172                     u1020:
  3515  0172                     l1219:
  3516  0172  0877               	movf	___awdiv@divisor,w
  3517  0173  02F9               	subwf	___awdiv@dividend,f
  3518  0174  0878               	movf	___awdiv@divisor+1,w
  3519  0175  1C03               	skipc
  3520  0176  03FA               	decf	___awdiv@dividend+1,f
  3521  0177  02FA               	subwf	___awdiv@dividend+1,f
  3522  0178                     l1221:
  3523  0178  1422               	bsf	___awdiv@quotient,0
  3524  0179                     l1223:
  3525  0179  3001               	movlw	1
  3526  017A                     u1035:
  3527  017A  1003               	clrc
  3528  017B  0CF8               	rrf	___awdiv@divisor+1,f
  3529  017C  0CF7               	rrf	___awdiv@divisor,f
  3530  017D  3EFF               	addlw	-1
  3531  017E  1D03               	skipz
  3532  017F  297A               	goto	u1035
  3533  0180                     l1225:
  3534  0180  3001               	movlw	1
  3535  0181  02A0               	subwf	___awdiv@counter,f
  3536  0182  1D03               	btfss	3,2
  3537  0183  2985               	goto	u1041
  3538  0184  2986               	goto	u1040
  3539  0185                     u1041:
  3540  0185  2961               	goto	l1217
  3541  0186                     u1040:
  3542  0186                     l1227:
  3543  0186  0821               	movf	___awdiv@sign,w
  3544  0187  1903               	btfsc	3,2
  3545  0188  298A               	goto	u1051
  3546  0189  298B               	goto	u1050
  3547  018A                     u1051:
  3548  018A  2990               	goto	l1231
  3549  018B                     u1050:
  3550  018B                     l1229:
  3551  018B  09A2               	comf	___awdiv@quotient,f
  3552  018C  09A3               	comf	___awdiv@quotient+1,f
  3553  018D  0AA2               	incf	___awdiv@quotient,f
  3554  018E  1903               	skipnz
  3555  018F  0AA3               	incf	___awdiv@quotient+1,f
  3556  0190                     l1231:
  3557  0190  0823               	movf	___awdiv@quotient+1,w
  3558  0191  00F8               	movwf	?___awdiv+1
  3559  0192  0822               	movf	___awdiv@quotient,w
  3560  0193  00F7               	movwf	?___awdiv
  3561  0194                     l316:
  3562  0194  0008               	return
  3563  0195                     __end_of___awdiv:
  3564  007E                     btemp	set	126	;btemp
  3565  007E                     wtemp0	set	126
  3566                           
  3567                           	psect	config
  3568                           
  3569                           ;Config register CONFIG @ 0x2007
  3570                           ;	Oscillator Selection bits
  3571                           ;	FOSC = XT, XT oscillator
  3572                           ;	Watchdog Timer Enable bit
  3573                           ;	WDTE = OFF, WDT disabled
  3574                           ;	Power-up Timer Enable bit
  3575                           ;	PWRTE = OFF, PWRT disabled
  3576                           ;	Brown-out Reset Enable bit
  3577                           ;	BOREN = OFF, BOR disabled
  3578                           ;	Low-Voltage (Single-Supply) In-Circuit Serial Programming Enable bit
  3579                           ;	LVP = OFF, RB3 is digital I/O, HV on MCLR must be used for programming
  3580                           ;	Data EEPROM Memory Code Protection bit
  3581                           ;	CPD = OFF, Data EEPROM code protection off
  3582                           ;	Flash Program Memory Write Enable bits
  3583                           ;	WRT = OFF, Write protection off; all program memory may be written to by EECON control
  3584                           ;	In-Circuit Debugger Mode bit
  3585                           ;	DEBUG = 0x1, unprogrammed default
  3586                           ;	Flash Program Memory Code Protection bit
  3587                           ;	CP = OFF, Code protection off
  3588  2007                     	org	8199
  3589  2007  3F39               	dw	16185

Data Sizes:
    Strings     18
    Constant    4
    Data        0
    BSS         2
    Persistent  0
    Stack       0

Auto Spaces:
    Space          Size  Autos    Used
    COMMON           14     14      14
    BANK0            80     43      45
    BANK1            80      0       0
    BANK3            96      0       0
    BANK2            96      0       0

Pointer List with Targets:

    lcd_yaz@s	PTR const unsigned char  size(1) Largest target is 10
		 -> STR_2(CODE[10]), STR_1(CODE[8]), 


Critical Paths under _main in COMMON

    _main->___xxtofl
    _lcd_yaz->_veri_yolla
    _veri_yolla->_bekle
    _lcd_hazirla->_lcd_sil
    _lcd_sil->_lcd_komut
    _lcd_gotoxy->_lcd_komut
    _lcd_komut->_bekle
    ___fltol->___xxtofl
    ___flmul->___xxtofl
    ___awdiv->___awmod

Critical Paths under _main in BANK0

    _main->___fltol
    ___fltol->___flmul

Critical Paths under _main in BANK1

    None.

Critical Paths under _main in BANK3

    None.

Critical Paths under _main in BANK2

    None.

Call Graph Tables:

 ---------------------------------------------------------------------------------
 (Depth) Function   	        Calls       Base Space   Used Autos Params    Refs
 ---------------------------------------------------------------------------------
 (0) _main                                                 6     6      0    6264
                                             37 BANK0      6     6      0
                            ___awdiv
                            ___awmod
                            ___flmul
                            ___fltol
                           ___xxtofl
                         _lcd_gotoxy
                        _lcd_hazirla
                            _lcd_yaz
                         _veri_yolla
 ---------------------------------------------------------------------------------
 (1) _lcd_yaz                                              2     2      0     155
                                              3 COMMON     2     2      0
                              _bekle
                         _veri_yolla
 ---------------------------------------------------------------------------------
 (1) _veri_yolla                                           2     2      0      44
                                              1 COMMON     2     2      0
                              _bekle
 ---------------------------------------------------------------------------------
 (1) _lcd_hazirla                                          2     2      0      88
                                              5 COMMON     2     2      0
                          _lcd_komut
                            _lcd_sil
 ---------------------------------------------------------------------------------
 (2) _lcd_sil                                              2     2      0      44
                                              3 COMMON     2     2      0
                          _lcd_komut
 ---------------------------------------------------------------------------------
 (1) _lcd_gotoxy                                           2     1      1     262
                                              3 COMMON     2     1      1
                          _lcd_komut
 ---------------------------------------------------------------------------------
 (3) _lcd_komut                                            2     2      0      44
                                              1 COMMON     2     2      0
                              _bekle
 ---------------------------------------------------------------------------------
 (2) _bekle                                                1     1      0       0
                                              0 COMMON     1     1      0
 ---------------------------------------------------------------------------------
 (1) ___xxtofl                                            14    10      4     398
                                              0 COMMON    14    10      4
 ---------------------------------------------------------------------------------
 (1) ___fltol                                             11     7      4     305
                                             26 BANK0     11     7      4
                            ___flmul (ARG)
                           ___xxtofl (ARG)
 ---------------------------------------------------------------------------------
 (1) ___flmul                                             26    18      8    2569
                                              0 BANK0     26    18      8
                          __Umul8_16
                           ___xxtofl (ARG)
 ---------------------------------------------------------------------------------
 (2) __Umul8_16                                            9     7      2     799
                                              0 COMMON     9     7      2
 ---------------------------------------------------------------------------------
 (1) ___awmod                                              7     3      4    1360
                                              0 COMMON     7     3      4
 ---------------------------------------------------------------------------------
 (1) ___awdiv                                              9     5      4    1060
                                              7 COMMON     5     1      4
                                              0 BANK0      4     4      0
                            ___awmod (ARG)
 ---------------------------------------------------------------------------------
 Estimated maximum stack depth 3
 ---------------------------------------------------------------------------------

 Call Graph Graphs:

 _main (ROOT)
   ___awdiv
     ___awmod (ARG)
   ___awmod
   ___flmul
     __Umul8_16
     ___xxtofl (ARG)
   ___fltol
     ___flmul (ARG)
     ___xxtofl (ARG)
   ___xxtofl
   _lcd_gotoxy
     _lcd_komut
       _bekle
   _lcd_hazirla
     _lcd_komut
     _lcd_sil
       _lcd_komut
   _lcd_yaz
     _bekle
     _veri_yolla
       _bekle
   _veri_yolla

 Address spaces:
Name               Size   Autos  Total    Cost      Usage
BITCOMMON            E      0       0       0        0.0%
EEDATA             100      0       0       0        0.0%
NULL                 0      0       0       0        0.0%
CODE                 0      0       0       0        0.0%
COMMON               E      E       E       1      100.0%
BITSFR0              0      0       0       1        0.0%
SFR0                 0      0       0       1        0.0%
BITSFR1              0      0       0       2        0.0%
SFR1                 0      0       0       2        0.0%
STACK                0      0       0       2        0.0%
ABS                  0      0      3B       3        0.0%
BITBANK0            50      0       0       4        0.0%
BITSFR3              0      0       0       4        0.0%
SFR3                 0      0       0       4        0.0%
BANK0               50     2B      2D       5       56.2%
BITSFR2              0      0       0       5        0.0%
SFR2                 0      0       0       5        0.0%
BITBANK1            50      0       0       6        0.0%
BANK1               50      0       0       7        0.0%
BITBANK3            60      0       0       8        0.0%
BANK3               60      0       0       9        0.0%
BITBANK2            60      0       0      10        0.0%
BANK2               60      0       0      11        0.0%
DATA                 0      0      3B      12        0.0%


Microchip Technology PIC Macro Assembler V2.32 build 20210201212658 
Symbol Table                                                                                   Wed Feb 02 15:39:14 2022

                      pc 0002                       l60 006D                       l36 02EC  
                     l54 0023                       l63 0FC1                       l57 0048  
                     l74 0FDB                       l77 00D2                       l69 0FFF  
           ___awdiv@sign 0021                       fsr 0004      __Umul8_16@word_mpld 0076  
                    l316 0194                      l329 012B                      l610 02A0  
                    l602 0278                      l356 01FB                      l349 0210  
                    l359 0210                      l552 07F7                      l609 0294  
                    l571 0082                      l564 07EB                      l573 0094  
                    l558 0763                      l596 0233                      l598 02CA  
                    _RB0 0030                      _RB1 0031                      _RB2 0032  
                    u910 007C                      u911 007B                      u905 005F  
                    u930 0090                      u931 008F                      u940 0FC8  
                    u925 0083                      u941 0FC7                      u950 0FFF  
                    u951 0FFE                      u960 0133                      u961 0132  
                    u970 013E                      u971 013D                      u980 014F  
                    u981 014E                      u895 003A                      u995 0153  
                    fsr0 0004             ___awmod@sign 0076             ___flmul@aexp 0032  
           ___flmul@bexp 0033             ___flmul@sign 002D             ___flmul@temp 0038  
           ___flmul@prod 0034              lcd_gotoxy@x 0074              lcd_gotoxy@y 0073  
           ___fltol@exp1 0044                     l1201 013E                     l1121 002D  
                   l1211 0152                     l1203 0143                     l1115 001F  
                   l1131 0043                     l1123 002E                     l1221 0178  
                   l1213 0159                     l1205 0147                     l1125 0033  
                   l1117 0025                     l1141 0058                     l1133 004A  
                   l1231 0190                     l1223 0179                     l1215 015D  
                   l1207 0149                     l1311 049E                     l1303 01F0  
                   l1127 0036                     l1119 002A                     l1151 0FB8  
                   l1143 005B                     l1135 004F                     l1225 0180  
                   l1217 0161                     l1209 014F                     l1241 00DD  
                   l1161 008B                     l1153 006F                     l1401 0734  
                   l1321 04B3                     l1313 04A4                     l1305 0200  
                   l1129 0042                     l1145 0067                     l1137 0052  
                   l1219 0172                     l1227 0186                     l1251 00F1  
                   l1243 00DF                     l1235 00D3                     l1163 0090  
                   l1155 0071                     l1411 074C                     l1403 073D  
                   l1331 04D0                     l1323 04BB                     l1315 04A8  
                   l1307 0205                     l1171 00A3                     l1147 0068  
                   l1139 0053                     l1229 018B                     l1261 0110  
                   l1253 00F8                     l1245 00E3                     l1237 00D4  
                   l1157 0078                     l1421 077B                     l1413 0760  
                   l1405 0743                     l1341 04E7                     l1333 04D4  
                   l1325 04BD                     l1317 04A9                     l1309 0497  
                   l1181 0FD2                     l1149 0FB2                     l1173 00A6  
                   l1501 02D4                     l1191 012C                     l1263 0117  
                   l1255 00FC                     l1247 00E8                     l1239 00D8  
                   l1159 007C                     l1431 07B6                     l1423 077F  
                   l1407 0747                     l1343 04E9                     l1335 04D5  
                   l1327 04C5                     l1319 04AE                     l1175 00AC  
                   l1167 0095                     l1183 0FDD                     l1511 02D9  
                   l1503 02D5                     l1193 012F                     l1257 0100  
                   l1249 00EE                     l1265 011D                     l1441 07E3  
                   l1433 07C5                     l1425 0798                     l1417 0768  
                   l1409 0748                     l1361 055A                     l1353 0504  
                   l1345 04F1                     l1337 04DA                     l1329 04CA  
                   l1281 01C0                     l1273 0195                     l1177 0FC3  
                   l1169 009A                     l1185 0FE3                     l1521 02E0  
                   l1513 02DA                     l1505 02D6                     l1195 0133  
                   l1267 0122                     l1259 010A                     l1443 07E4  
                   l1435 07CF                     l1419 076D                     l1427 079E  
                   l1371 05D7                     l1363 0586                     l1355 0514  
                   l1347 04F6                     l1339 04DF                     l1283 01C1  
                   l1275 01A2                     l1451 0217                     l1179 0FC8  
                   l1187 0FEF                     l1531 02E9                     l1523 02E1  
                   l1515 02DB                     l1507 02D7                     l1197 0138  
                   l1269 0127                     l1445 07EF                     l1437 07D1  
                   l1429 07AB                     l1381 0657                     l1373 05F4  
                   l1365 05A2                     l1357 0521                     l1349 04FB  
                   l1285 01C9                     l1461 0244                     l1453 021B  
                   l1189 0FF3                     l1541 0389                     l1533 02F0  
                   l1525 02E2                     l1517 02DC                     l1509 02D8  
                   l1199 013A                     l1439 07DF                     l1391 070F  
                   l1383 0684                     l1375 0604                     l1367 05BE  
                   l1359 053E                     l1295 01D7                     l1287 01CB  
                   l1279 01AB                     l1471 026F                     l1463 0249  
                   l1455 022B                     l1551 03D6                     l1543 038F  
                   l1535 0358                     l1527 02E3                     l1519 02DF  
                   l1393 0718                     l1385 0694                     l1377 0621  
                   l1369 05C7                     l1289 01CF                     l1297 01E9  
                   l1481 02A2                     l1473 027F                     l1465 0256  
                   l1457 023B                     l1449 0212                     l1553 03DC  
                   l1545 03B2                     l1537 0360                     l1529 02E4  
                   l1395 0726                     l1387 06C1                     l1379 063A  
                   l1483 02B8                     l1475 028A                     l1467 025D  
                   l1555 040D                     l1547 03C8                     l1539 0366  
                   l1397 072F                     l1389 06E7                     l1485 02BD  
                   l1477 028E                     l1469 0261                     l1557 043E  
                   l1549 03CE                     l1493 02CB                     l1399 0733  
                   l1487 02C1                     l1479 0298                     l1559 046F  
                   l1495 02CF                     l1489 02C2                     l1497 02D0  
                   l1499 02D1                     STR_1 0017                     STR_2 000D  
                   u1000 0161                     u1001 0160                     u1020 0172  
                   u1100 0100                     u1021 0171                     u1101 00FF  
                   u1110 010A                     u1015 0162                     u1111 0109  
                   u1040 0186                     u1200 01E8                     u1041 0185  
                   u1025 016E                     u1201 01E7                     u1050 018B  
                   u1130 011D                     u1210 01EF                     u1051 018A  
                   u1035 017A                     u1131 011C                     u1115 0106  
                   u1211 01EE                     u1140 0122                     u1060 00D8  
                   u1300 04DF                     u1141 0121                     u1125 0111  
                   u1061 00D7                     u1301 04DE                     u1070 00E3  
                   u1310 04F6                     u1230 0200                     u1150 01A2  
                   u1071 00E2                     u1311 04F5                     u1231 01FF  
                   u1151 01A1                     u1080 00EE                     u1320 04FB  
                   u1240 0205                     u1160 01B9                     u1081 00ED  
                   u1321 04FA                     u1241 0204                     u1225 01F2  
                   u1250 04A8                     u1170 01CF                     u1411 0649  
                   u1331 054C                     u1251 04A7                     u1171 01CE  
                   u1500 0733                     u1412 0650                     u1332 0553  
                   u1260 04AE                     u1180 01D6                     u1501 0732  
                   u1421 0676                     u1413 0657                     u1405 0623  
                   u1341 0568                     u1333 055A                     u1261 04AD  
                   u1181 01D5                     u1165 01B4                     u1422 067D  
                   u1342 056F                     u1270 04B3                     u1095 00F2  
                   u1431 06A3                     u1423 0684                     u1351 0594  
                   u1343 0576                     u1271 04B2                     u1600 07C5  
                   u1520 0747                     u1440 06CD                     u1432 06AA  
                   u1352 059B                     u1280 04D4                     u1601 07C4  
                   u1521 0746                     u1433 06B1                     u1361 05B0  
                   u1353 05A2                     u1281 04D3                     u1610 07E3  
                   u1530 074C                     u1362 05B7                     u1290 04DA  
                   u1611 07E2                     u1531 074B                     u1515 0736  
                   u1451 06D9                     u1363 05BE                     u1291 04D9  
                   u1195 01D8                     u1540 0760                     u1460 06F5  
                   u1452 06E0                     u1700 028E                     u1620 0217  
                   u1605 07C1                     u1541 075F                     u1453 06E7  
                   u1445 06C8                     u1381 05E6                     u1701 028D  
                   u1621 0216                     u1550 0767                     u1382 05ED  
                   u1710 0294                     u1630 021B                     u1551 0766  
                   u1471 0701                     u1391 0613                     u1383 05F4  
                   u1375 05C0                     u1711 0293                     u1631 021A  
                   u1560 076D                     u1472 0708                     u1392 061A  
                   u1720 0298                     u1640 023B                     u1561 076C  
                   u1473 070F                     u1465 06F0                     u1393 0621  
                   u1721 0297                     u1641 023A                     u1570 077F  
                   u1730 02AD                     u1571 077E                     u1580 078E  
                   u1740 02BD                     u1660 025C                     u1485 0711  
                   u1741 02BC                     u1661 025B                     u1590 07AB  
                   u1750 02C1                     u1591 07AA                     u1495 0728  
                   u1751 02C0                     u1735 02A8                     u1655 024E  
                   u1807 0021                     u1680 027E                     u1760 02F0  
                   u1585 0789                     u1681 027D                     u1761 02EF  
                   u1595 07A7                     u1675 0270                     u1695 0283  
                   u1777 009E                     u1787 00B0                     u1797 0FBC  
                   _main 02CB                     _oran 0009                     btemp 007E  
                   _volt 004B                     start 0000            ___fltol@sign1 0043  
                  ?_main 0070          __end_of___awdiv 0195          __end_of___awmod 012C  
        __end_of___flmul 07F8          __end_of___fltol 0211          ___awdiv@divisor 0077  
        ___awdiv@counter 0020                    _PORTB 0006                    _PORTC 0007  
                  _TRISA 0085                    _TRISB 0086                    _TRISC 0087  
        __end_of_lcd_sil 0FC2          __end_of_lcd_yaz 1000                    _bekle 001F  
                  pclath 000A                    status 0003                    wtemp0 007E  
        __initialization 07F8             __end_of_main 0497             __end_of_oran 000D  
                 ??_main 0045                   ?_bekle 0070                   _ADRESH 001E  
                 _ADRESL 009E         ___awdiv@dividend 0079         __end_of___xxtofl 02CB  
   __size_of_lcd_hazirla 003E                ??___awdiv 007B                ??___awmod 0074  
              ??___flmul 0028                ??___fltol 003E         ___awdiv@quotient 0022  
        ___awmod@divisor 0070          ___awmod@counter 0075                ??_lcd_sil 0073  
              ??_lcd_yaz 0073       __size_of__Umul8_16 0027             ___xxtofl@arg 007A  
           ___xxtofl@exp 0079             ___xxtofl@val 0070  __end_of__initialization 07FC  
             ___fltol@f1 003A           __pcstackCOMMON 0070            __end_of_bekle 0024  
     __size_of_lcd_komut 0025                  ??_bekle 0070               __pbssBANK0 004B  
      __end_of__Umul8_16 0095               __pmaintext 02CB                ?___xxtofl 0070  
             _lcd_gotoxy 0FC2               __stringtab 0003        __end_of_lcd_komut 0049  
                ___awdiv 012C                  ___awmod 00D3                  ___flmul 0497  
                ___fltol 0195                  __ptext1 0FDC                  __ptext2 0049  
                __ptext3 0095                  __ptext4 0FB2                  __ptext5 0FC2  
                __ptext6 0024                  __ptext7 001F                  __ptext8 0211  
                __ptext9 0195                  _lcd_sil 0FB2                  _lcd_yaz 0FDC  
             ??___xxtofl 0074         ___awmod@dividend 0072     end_of_initialization 07FC  
          ___xxtofl@sign 0078               _veri_yolla 0049              ?_lcd_gotoxy 0073  
            ___flmul@grs 002E               lcd_komut@c 0072            ??_lcd_hazirla 0075  
            veri_yolla@c 0072      start_initialization 07F8      __size_of_lcd_gotoxy 001A  
              __Umul8_16 006E      __end_of_lcd_hazirla 00D3                ___flmul@a 0024  
              ___flmul@b 0020              ?_veri_yolla 0070                ___latbits 0002  
          __pcstackBANK0 0020        __size_of___xxtofl 00BA                 ?___awdiv 0077  
               ?___awmod 0070                 ?___flmul 0020                 ?___fltol 003A  
             ?__Umul8_16 0070                _lcd_komut 0024                __pstrings 0003  
               ?_lcd_sil 0070                 ?_lcd_yaz 0070           __size_of_bekle 0005  
            _lcd_hazirla 0095      __size_of_veri_yolla 0025               ?_lcd_komut 0070  
             _ADCON0bits 001F              __stringbase 0008               _ADCON1bits 009F  
           ??_lcd_gotoxy 0074       __end_of_lcd_gotoxy 0FDC              ??__Umul8_16 0072  
       __size_of___awdiv 0069         __size_of___awmod 0059         __size_of___flmul 0361  
       __size_of___fltol 007C       __end_of__stringtab 0009         __size_of_lcd_sil 0010  
       __size_of_lcd_yaz 0024                 ___xxtofl 0211                 _main$781 0047  
               __ptext10 0497                 __ptext11 006E                 __ptext12 00D3  
               __ptext13 012C            __size_of_main 01CC                 lcd_yaz@s 0074  
            ??_lcd_komut 0071             ??_veri_yolla 0071                stringcode 0003  
     __end_of_veri_yolla 006E   __Umul8_16@multiplicand 0070                 stringdir 0003  
               stringtab 0003     __Umul8_16@multiplier 0078             ?_lcd_hazirla 0070  
      __Umul8_16@product 0074  
